ARM GAS  C:\Users\ALEXAN~1\AppData\Local\Temp\ccdQChDh.s 			page 1


   1              		.cpu cortex-m0
   2              		.fpu softvfp
   3              		.eabi_attribute 20, 1
   4              		.eabi_attribute 21, 1
   5              		.eabi_attribute 23, 3
   6              		.eabi_attribute 24, 1
   7              		.eabi_attribute 25, 1
   8              		.eabi_attribute 26, 1
   9              		.eabi_attribute 30, 6
  10              		.eabi_attribute 34, 0
  11              		.eabi_attribute 18, 4
  12              		.code	16
  13              		.file	"gps.c"
  14              		.text
  15              	.Ltext0:
  16              		.cfi_sections	.debug_frame
  17              		.global	gpsBuffer
  18              		.bss
  19              		.align	2
  20              		.type	gpsBuffer, %object
  21              		.size	gpsBuffer, 300
  22              	gpsBuffer:
  23 0000 00000000 		.space	300
  23      00000000 
  23      00000000 
  23      00000000 
  23      00000000 
  24              		.global	gpsBufferPointer
  25              		.align	2
  26              		.type	gpsBufferPointer, %object
  27              		.size	gpsBufferPointer, 4
  28              	gpsBufferPointer:
  29 012c 00000000 		.space	4
  30              		.global	gpvtg
  31              		.section	.rodata
  32              		.align	2
  33              	.LC0:
  34 0000 24475056 		.ascii	"$GPVTG\000"
  34      544700
  35              		.data
  36              		.align	2
  37              		.type	gpvtg, %object
  38              		.size	gpvtg, 4
  39              	gpvtg:
  40 0000 00000000 		.word	.LC0
  41              		.global	gpgga
  42              		.section	.rodata
  43 0007 00       		.align	2
  44              	.LC1:
  45 0008 24475047 		.ascii	"$GPGGA\000"
  45      474100
  46              		.data
  47              		.align	2
  48              		.type	gpgga, %object
  49              		.size	gpgga, 4
  50              	gpgga:
  51 0004 08000000 		.word	.LC1
ARM GAS  C:\Users\ALEXAN~1\AppData\Local\Temp\ccdQChDh.s 			page 2


  52              		.global	gpgsv
  53              		.section	.rodata
  54 000f 00       		.align	2
  55              	.LC2:
  56 0010 24475047 		.ascii	"$GPGSV\000"
  56      535600
  57              		.data
  58              		.align	2
  59              		.type	gpgsv, %object
  60              		.size	gpgsv, 4
  61              	gpgsv:
  62 0008 10000000 		.word	.LC2
  63              		.global	speed_
  64              		.bss
  65              		.align	2
  66              		.type	speed_, %object
  67              		.size	speed_, 4
  68              	speed_:
  69 0130 00000000 		.space	4
  70              		.global	numberOfSate_
  71              		.align	2
  72              		.type	numberOfSate_, %object
  73              		.size	numberOfSate_, 4
  74              	numberOfSate_:
  75 0134 00000000 		.space	4
  76              		.global	time_
  77              		.align	2
  78              		.type	time_, %object
  79              		.size	time_, 4
  80              	time_:
  81 0138 00000000 		.space	4
  82              		.section	.text.GetGPSTime,"ax",%progbits
  83              		.align	2
  84              		.global	GetGPSTime
  85              		.code	16
  86              		.thumb_func
  87              		.type	GetGPSTime, %function
  88              	GetGPSTime:
  89              	.LFB33:
  90              		.file 1 ".\\gps.c"
   1:.\gps.c       **** #include <project.h>
   2:.\gps.c       **** #include <string.h>
   3:.\gps.c       **** #include <stdio.h>
   4:.\gps.c       **** #include <stdlib.h>
   5:.\gps.c       **** #include <math.h>
   6:.\gps.c       **** #include "gps.h"
   7:.\gps.c       **** #include "util.h"
   8:.\gps.c       **** 
   9:.\gps.c       **** // Set GPS to 10 Hz
  10:.\gps.c       **** //    UART_GPS_PutString("$PMTK220,200*2C");
  11:.\gps.c       **** //    UART_GPS_PutChar(13);
  12:.\gps.c       **** //    UART_GPS_PutChar(10);
  13:.\gps.c       **** //    UART_GPS_PutString("$PMTK300,200,0,0,0,0*2F");
  14:.\gps.c       **** //    UART_GPS_PutChar(13);
  15:.\gps.c       **** //    UART_GPS_PutChar(10);
  16:.\gps.c       **** 
  17:.\gps.c       **** /********** GPS  ***************/
ARM GAS  C:\Users\ALEXAN~1\AppData\Local\Temp\ccdQChDh.s 			page 3


  18:.\gps.c       **** 
  19:.\gps.c       **** char gpsBuffer[300] = "";
  20:.\gps.c       **** int gpsBufferPointer = 0;
  21:.\gps.c       **** char* gpvtg = "$GPVTG";
  22:.\gps.c       **** char* gpgga = "$GPGGA";
  23:.\gps.c       **** char* gpgsv = "$GPGSV";
  24:.\gps.c       **** 
  25:.\gps.c       **** int speed_ = 0;
  26:.\gps.c       **** int numberOfSate_ = 0;
  27:.\gps.c       **** int time_ = 0;
  28:.\gps.c       **** 
  29:.\gps.c       **** /********** /GPS  ***************/
  30:.\gps.c       **** 
  31:.\gps.c       **** int GetGPSTime() {
  91              		.loc 1 31 0
  92              		.cfi_startproc
  93 0000 80B5     		push	{r7, lr}
  94              	.LCFI0:
  95              		.cfi_def_cfa_offset 8
  96              		.cfi_offset 7, -8
  97              		.cfi_offset 14, -4
  98 0002 00AF     		add	r7, sp, #0
  99              	.LCFI1:
 100              		.cfi_def_cfa_register 7
  32:.\gps.c       ****     return time_;
 101              		.loc 1 32 0
 102 0004 024B     		ldr	r3, .L3
 103 0006 1B68     		ldr	r3, [r3]
  33:.\gps.c       **** }
 104              		.loc 1 33 0
 105 0008 181C     		mov	r0, r3
 106 000a BD46     		mov	sp, r7
 107              		@ sp needed for prologue
 108 000c 80BD     		pop	{r7, pc}
 109              	.L4:
 110 000e C046     		.align	2
 111              	.L3:
 112 0010 00000000 		.word	time_
 113              		.cfi_endproc
 114              	.LFE33:
 115              		.size	GetGPSTime, .-GetGPSTime
 116              		.section	.text.getNumberOfSate,"ax",%progbits
 117              		.align	2
 118              		.global	getNumberOfSate
 119              		.code	16
 120              		.thumb_func
 121              		.type	getNumberOfSate, %function
 122              	getNumberOfSate:
 123              	.LFB34:
  34:.\gps.c       **** 
  35:.\gps.c       **** int getNumberOfSate() {
 124              		.loc 1 35 0
 125              		.cfi_startproc
 126 0000 80B5     		push	{r7, lr}
 127              	.LCFI2:
 128              		.cfi_def_cfa_offset 8
 129              		.cfi_offset 7, -8
ARM GAS  C:\Users\ALEXAN~1\AppData\Local\Temp\ccdQChDh.s 			page 4


 130              		.cfi_offset 14, -4
 131 0002 00AF     		add	r7, sp, #0
 132              	.LCFI3:
 133              		.cfi_def_cfa_register 7
  36:.\gps.c       ****     return numberOfSate_;
 134              		.loc 1 36 0
 135 0004 024B     		ldr	r3, .L7
 136 0006 1B68     		ldr	r3, [r3]
  37:.\gps.c       **** }
 137              		.loc 1 37 0
 138 0008 181C     		mov	r0, r3
 139 000a BD46     		mov	sp, r7
 140              		@ sp needed for prologue
 141 000c 80BD     		pop	{r7, pc}
 142              	.L8:
 143 000e C046     		.align	2
 144              	.L7:
 145 0010 00000000 		.word	numberOfSate_
 146              		.cfi_endproc
 147              	.LFE34:
 148              		.size	getNumberOfSate, .-getNumberOfSate
 149              		.section	.text.getGPSSpeed,"ax",%progbits
 150              		.align	2
 151              		.global	getGPSSpeed
 152              		.code	16
 153              		.thumb_func
 154              		.type	getGPSSpeed, %function
 155              	getGPSSpeed:
 156              	.LFB35:
  38:.\gps.c       **** int getGPSSpeed() {
 157              		.loc 1 38 0
 158              		.cfi_startproc
 159 0000 80B5     		push	{r7, lr}
 160              	.LCFI4:
 161              		.cfi_def_cfa_offset 8
 162              		.cfi_offset 7, -8
 163              		.cfi_offset 14, -4
 164 0002 00AF     		add	r7, sp, #0
 165              	.LCFI5:
 166              		.cfi_def_cfa_register 7
  39:.\gps.c       ****     return speed_;
 167              		.loc 1 39 0
 168 0004 024B     		ldr	r3, .L11
 169 0006 1B68     		ldr	r3, [r3]
  40:.\gps.c       **** }
 170              		.loc 1 40 0
 171 0008 181C     		mov	r0, r3
 172 000a BD46     		mov	sp, r7
 173              		@ sp needed for prologue
 174 000c 80BD     		pop	{r7, pc}
 175              	.L12:
 176 000e C046     		.align	2
 177              	.L11:
 178 0010 00000000 		.word	speed_
 179              		.cfi_endproc
 180              	.LFE35:
 181              		.size	getGPSSpeed, .-getGPSSpeed
ARM GAS  C:\Users\ALEXAN~1\AppData\Local\Temp\ccdQChDh.s 			page 5


 182              		.section	.text.getGPSUartNumberOfSate,"ax",%progbits
 183              		.align	2
 184              		.global	getGPSUartNumberOfSate
 185              		.code	16
 186              		.thumb_func
 187              		.type	getGPSUartNumberOfSate, %function
 188              	getGPSUartNumberOfSate:
 189              	.LFB36:
  41:.\gps.c       **** char* getGPSUartNumberOfSate() {
 190              		.loc 1 41 0
 191              		.cfi_startproc
 192 0000 80B5     		push	{r7, lr}
 193              	.LCFI6:
 194              		.cfi_def_cfa_offset 8
 195              		.cfi_offset 7, -8
 196              		.cfi_offset 14, -4
 197 0002 86B0     		sub	sp, sp, #24
 198              	.LCFI7:
 199              		.cfi_def_cfa_offset 32
 200 0004 00AF     		add	r7, sp, #0
 201              	.LCFI8:
 202              		.cfi_def_cfa_register 7
  42:.\gps.c       ****     char returnSpeed[22];
  43:.\gps.c       ****     intToStr(getNumberOfSate(), *returnSpeed, 2);
 203              		.loc 1 43 0
 204 0006 FFF7FEFF 		bl	getNumberOfSate
 205 000a 021C     		mov	r2, r0
 206 000c 3B1C     		mov	r3, r7
 207 000e 1B78     		ldrb	r3, [r3]
 208 0010 101C     		mov	r0, r2
 209 0012 191C     		mov	r1, r3
 210 0014 0222     		mov	r2, #2
 211 0016 FFF7FEFF 		bl	intToStr
  44:.\gps.c       ****     return *returnSpeed;
 212              		.loc 1 44 0
 213 001a 3B1C     		mov	r3, r7
 214 001c 1B78     		ldrb	r3, [r3]
  45:.\gps.c       **** }
 215              		.loc 1 45 0
 216 001e 181C     		mov	r0, r3
 217 0020 BD46     		mov	sp, r7
 218 0022 06B0     		add	sp, sp, #24
 219              		@ sp needed for prologue
 220 0024 80BD     		pop	{r7, pc}
 221              		.cfi_endproc
 222              	.LFE36:
 223              		.size	getGPSUartNumberOfSate, .-getGPSUartNumberOfSate
 224 0026 C046     		.section	.text.getGPSUartSpeed,"ax",%progbits
 225              		.align	2
 226              		.global	getGPSUartSpeed
 227              		.code	16
 228              		.thumb_func
 229              		.type	getGPSUartSpeed, %function
 230              	getGPSUartSpeed:
 231              	.LFB37:
  46:.\gps.c       **** char* getGPSUartSpeed() {
 232              		.loc 1 46 0
ARM GAS  C:\Users\ALEXAN~1\AppData\Local\Temp\ccdQChDh.s 			page 6


 233              		.cfi_startproc
 234 0000 80B5     		push	{r7, lr}
 235              	.LCFI9:
 236              		.cfi_def_cfa_offset 8
 237              		.cfi_offset 7, -8
 238              		.cfi_offset 14, -4
 239 0002 82B0     		sub	sp, sp, #8
 240              	.LCFI10:
 241              		.cfi_def_cfa_offset 16
 242 0004 00AF     		add	r7, sp, #0
 243              	.LCFI11:
 244              		.cfi_def_cfa_register 7
  47:.\gps.c       ****     char returnSpeed[4];
  48:.\gps.c       ****     intToStr(getGPSSpeed(), *returnSpeed, 4);
 245              		.loc 1 48 0
 246 0006 FFF7FEFF 		bl	getGPSSpeed
 247 000a 021C     		mov	r2, r0
 248 000c 3B1D     		add	r3, r7, #4
 249 000e 1B78     		ldrb	r3, [r3]
 250 0010 101C     		mov	r0, r2
 251 0012 191C     		mov	r1, r3
 252 0014 0422     		mov	r2, #4
 253 0016 FFF7FEFF 		bl	intToStr
  49:.\gps.c       ****     return *returnSpeed;
 254              		.loc 1 49 0
 255 001a 3B1D     		add	r3, r7, #4
 256 001c 1B78     		ldrb	r3, [r3]
  50:.\gps.c       **** }
 257              		.loc 1 50 0
 258 001e 181C     		mov	r0, r3
 259 0020 BD46     		mov	sp, r7
 260 0022 02B0     		add	sp, sp, #8
 261              		@ sp needed for prologue
 262 0024 80BD     		pop	{r7, pc}
 263              		.cfi_endproc
 264              	.LFE37:
 265              		.size	getGPSUartSpeed, .-getGPSUartSpeed
 266 0026 C046     		.section	.rodata
 267 0017 00       		.align	2
 268              	.LC9:
 269 0018 47504747 		.ascii	"GPGGA\000"
 269      4100
 270 001e 0000     		.align	2
 271              	.LC12:
 272 0020 47505654 		.ascii	"GPVTG\000"
 272      4700
 273 0026 0000     		.align	2
 274              	.LC15:
 275 0028 47505653 		.ascii	"GPVSG\000"
 275      4700
 276              		.section	.text.readGPSData,"ax",%progbits
 277              		.align	2
 278              		.global	readGPSData
 279              		.code	16
 280              		.thumb_func
 281              		.type	readGPSData, %function
 282              	readGPSData:
ARM GAS  C:\Users\ALEXAN~1\AppData\Local\Temp\ccdQChDh.s 			page 7


 283              	.LFB38:
  51:.\gps.c       **** 
  52:.\gps.c       **** void readGPSData() {
 284              		.loc 1 52 0
 285              		.cfi_startproc
 286 0000 90B5     		push	{r4, r7, lr}
 287              	.LCFI12:
 288              		.cfi_def_cfa_offset 12
 289              		.cfi_offset 4, -12
 290              		.cfi_offset 7, -8
 291              		.cfi_offset 14, -4
 292 0002 85B0     		sub	sp, sp, #20
 293              	.LCFI13:
 294              		.cfi_def_cfa_offset 32
 295 0004 00AF     		add	r7, sp, #0
 296              	.LCFI14:
 297              		.cfi_def_cfa_register 7
  53:.\gps.c       ****     int completedGGA = 0;
 298              		.loc 1 53 0
 299 0006 0023     		mov	r3, #0
 300 0008 BB60     		str	r3, [r7, #8]
  54:.\gps.c       ****     int completedVTG = 0;
 301              		.loc 1 54 0
 302 000a 0023     		mov	r3, #0
 303 000c FB60     		str	r3, [r7, #12]
  55:.\gps.c       ****     while(!completedVTG) {
 304              		.loc 1 55 0
 305 000e 52E0     		b	.L18
 306              	.L23:
 307              	.LBB2:
  56:.\gps.c       ****         uint8 rxHasData = UART_GPS_GetRxBufferSize();
 308              		.loc 1 56 0
 309 0010 FC1D     		add	r4, r7, #7
 310 0012 FFF7FEFF 		bl	UART_GPS_GetRxBufferSize
 311 0016 031C     		mov	r3, r0
 312 0018 2370     		strb	r3, [r4]
  57:.\gps.c       ****         
  58:.\gps.c       ****         if (rxHasData) {
 313              		.loc 1 58 0
 314 001a FB1D     		add	r3, r7, #7
 315 001c 1B78     		ldrb	r3, [r3]
 316 001e 002B     		cmp	r3, #0
 317 0020 49D0     		beq	.L18
 318              	.LBB3:
  59:.\gps.c       ****             char rxData = UART_GPS_ReadRxData();
 319              		.loc 1 59 0
 320 0022 BC1D     		add	r4, r7, #6
 321 0024 FFF7FEFF 		bl	UART_GPS_ReadRxData
 322 0028 031C     		mov	r3, r0
 323 002a 2370     		strb	r3, [r4]
  60:.\gps.c       **** 
  61:.\gps.c       ****             gpsBuffer[gpsBufferPointer] = rxData;
 324              		.loc 1 61 0
 325 002c 254B     		ldr	r3, .L24
 326 002e 1B68     		ldr	r3, [r3]
 327 0030 254A     		ldr	r2, .L24+4
 328 0032 B91D     		add	r1, r7, #6
ARM GAS  C:\Users\ALEXAN~1\AppData\Local\Temp\ccdQChDh.s 			page 8


 329 0034 0978     		ldrb	r1, [r1]
 330 0036 D154     		strb	r1, [r2, r3]
  62:.\gps.c       ****             gpsBufferPointer++;
 331              		.loc 1 62 0
 332 0038 224B     		ldr	r3, .L24
 333 003a 1B68     		ldr	r3, [r3]
 334 003c 5A1C     		add	r2, r3, #1
 335 003e 214B     		ldr	r3, .L24
 336 0040 1A60     		str	r2, [r3]
  63:.\gps.c       ****             
  64:.\gps.c       ****             if (rxData == 0x10) {
 337              		.loc 1 64 0
 338 0042 BB1D     		add	r3, r7, #6
 339 0044 1B78     		ldrb	r3, [r3]
 340 0046 102B     		cmp	r3, #16
 341 0048 04D1     		bne	.L19
  65:.\gps.c       ****                 gpsBufferPointer = 0;
 342              		.loc 1 65 0
 343 004a 1E4B     		ldr	r3, .L24
 344 004c 0022     		mov	r2, #0
 345 004e 1A60     		str	r2, [r3]
  66:.\gps.c       ****                 resetGPSBuffer();
 346              		.loc 1 66 0
 347 0050 FFF7FEFF 		bl	resetGPSBuffer
 348              	.L19:
  67:.\gps.c       ****             }
  68:.\gps.c       ****             //UART_PC_UartPutChar(rxData);
  69:.\gps.c       ****             // Data completed. Received a full gps packet.
  70:.\gps.c       ****             if (rxData == 13) {            
 349              		.loc 1 70 0
 350 0054 BB1D     		add	r3, r7, #6
 351 0056 1B78     		ldrb	r3, [r3]
 352 0058 0D2B     		cmp	r3, #13
 353 005a 2CD1     		bne	.L18
  71:.\gps.c       ****                 if (compareGPSCMD(gpgga)){
 354              		.loc 1 71 0
 355 005c 1B4B     		ldr	r3, .L24+8
 356 005e 1B68     		ldr	r3, [r3]
 357 0060 181C     		mov	r0, r3
 358 0062 FFF7FEFF 		bl	compareGPSCMD
 359 0066 031C     		mov	r3, r0
 360 0068 002B     		cmp	r3, #0
 361 006a 05D0     		beq	.L20
  72:.\gps.c       ****                     handleGPSData("GPGGA");
 362              		.loc 1 72 0
 363 006c 184B     		ldr	r3, .L24+12
 364 006e 181C     		mov	r0, r3
 365 0070 FFF7FEFF 		bl	handleGPSData
  73:.\gps.c       ****                     completedGGA = 1;
 366              		.loc 1 73 0
 367 0074 0123     		mov	r3, #1
 368 0076 BB60     		str	r3, [r7, #8]
 369              	.L20:
  74:.\gps.c       ****                 }
  75:.\gps.c       ****                 if (compareGPSCMD(gpvtg)){
 370              		.loc 1 75 0
 371 0078 164B     		ldr	r3, .L24+16
ARM GAS  C:\Users\ALEXAN~1\AppData\Local\Temp\ccdQChDh.s 			page 9


 372 007a 1B68     		ldr	r3, [r3]
 373 007c 181C     		mov	r0, r3
 374 007e FFF7FEFF 		bl	compareGPSCMD
 375 0082 031C     		mov	r3, r0
 376 0084 002B     		cmp	r3, #0
 377 0086 05D0     		beq	.L21
  76:.\gps.c       ****                     handleGPSData("GPVTG");
 378              		.loc 1 76 0
 379 0088 134B     		ldr	r3, .L24+20
 380 008a 181C     		mov	r0, r3
 381 008c FFF7FEFF 		bl	handleGPSData
  77:.\gps.c       ****                     completedVTG = 1;
 382              		.loc 1 77 0
 383 0090 0123     		mov	r3, #1
 384 0092 FB60     		str	r3, [r7, #12]
 385              	.L21:
  78:.\gps.c       ****                 }
  79:.\gps.c       ****                 if (compareGPSCMD(gpgsv)) {
 386              		.loc 1 79 0
 387 0094 114B     		ldr	r3, .L24+24
 388 0096 1B68     		ldr	r3, [r3]
 389 0098 181C     		mov	r0, r3
 390 009a FFF7FEFF 		bl	compareGPSCMD
 391 009e 031C     		mov	r3, r0
 392 00a0 002B     		cmp	r3, #0
 393 00a2 03D0     		beq	.L22
  80:.\gps.c       ****                     handleGPSData("GPVSG");
 394              		.loc 1 80 0
 395 00a4 0E4B     		ldr	r3, .L24+28
 396 00a6 181C     		mov	r0, r3
 397 00a8 FFF7FEFF 		bl	handleGPSData
 398              	.L22:
  81:.\gps.c       ****                 }
  82:.\gps.c       ****                 
  83:.\gps.c       ****                 gpsBufferPointer = 0;
 399              		.loc 1 83 0
 400 00ac 054B     		ldr	r3, .L24
 401 00ae 0022     		mov	r2, #0
 402 00b0 1A60     		str	r2, [r3]
  84:.\gps.c       ****                 resetGPSBuffer();
 403              		.loc 1 84 0
 404 00b2 FFF7FEFF 		bl	resetGPSBuffer
 405              	.L18:
 406              	.LBE3:
 407              	.LBE2:
  55:.\gps.c       ****     while(!completedVTG) {
 408              		.loc 1 55 0 discriminator 1
 409 00b6 FB68     		ldr	r3, [r7, #12]
 410 00b8 002B     		cmp	r3, #0
 411 00ba A9D0     		beq	.L23
  85:.\gps.c       ****             }
  86:.\gps.c       ****         }
  87:.\gps.c       ****     }
  88:.\gps.c       **** }
 412              		.loc 1 88 0
 413 00bc BD46     		mov	sp, r7
 414 00be 05B0     		add	sp, sp, #20
ARM GAS  C:\Users\ALEXAN~1\AppData\Local\Temp\ccdQChDh.s 			page 10


 415              		@ sp needed for prologue
 416 00c0 90BD     		pop	{r4, r7, pc}
 417              	.L25:
 418 00c2 C046     		.align	2
 419              	.L24:
 420 00c4 00000000 		.word	gpsBufferPointer
 421 00c8 00000000 		.word	gpsBuffer
 422 00cc 00000000 		.word	gpgga
 423 00d0 18000000 		.word	.LC9
 424 00d4 00000000 		.word	gpvtg
 425 00d8 20000000 		.word	.LC12
 426 00dc 00000000 		.word	gpgsv
 427 00e0 28000000 		.word	.LC15
 428              		.cfi_endproc
 429              	.LFE38:
 430              		.size	readGPSData, .-readGPSData
 431              		.section	.rodata
 432 002e 0000     		.align	2
 433              	.LC19:
 434 0030 2C00     		.ascii	",\000"
 435              		.global	__aeabi_d2iz
 436 0032 0000     		.align	2
 437              	.LC25:
 438 0034 256400   		.ascii	"%d\000"
 439 0037 00       		.section	.text.handleGPSData,"ax",%progbits
 440              		.align	2
 441              		.global	handleGPSData
 442              		.code	16
 443              		.thumb_func
 444              		.type	handleGPSData, %function
 445              	handleGPSData:
 446              	.LFB39:
  89:.\gps.c       **** void handleGPSData(char* cmd) {
 447              		.loc 1 89 0
 448              		.cfi_startproc
 449 0000 F0B5     		push	{r4, r5, r6, r7, lr}
 450              	.LCFI15:
 451              		.cfi_def_cfa_offset 20
 452              		.cfi_offset 4, -20
 453              		.cfi_offset 5, -16
 454              		.cfi_offset 6, -12
 455              		.cfi_offset 7, -8
 456              		.cfi_offset 14, -4
 457 0002 4746     		mov	r7, r8
 458 0004 80B4     		push	{r7}
 459              	.LCFI16:
 460              		.cfi_def_cfa_offset 24
 461              		.cfi_offset 8, -24
 462 0006 88B0     		sub	sp, sp, #32
 463              	.LCFI17:
 464              		.cfi_def_cfa_offset 56
 465 0008 00AF     		add	r7, sp, #0
 466              	.LCFI18:
 467              		.cfi_def_cfa_register 7
 468 000a F860     		str	r0, [r7, #12]
 469 000c 6846     		mov	r0, sp
 470 000e 8046     		mov	r8, r0
ARM GAS  C:\Users\ALEXAN~1\AppData\Local\Temp\ccdQChDh.s 			page 11


  90:.\gps.c       ****     int i = 0;
 471              		.loc 1 90 0
 472 0010 0020     		mov	r0, #0
 473 0012 F861     		str	r0, [r7, #28]
  91:.\gps.c       ****     char packet[gpsBufferPointer-1];
 474              		.loc 1 91 0
 475 0014 4F48     		ldr	r0, .L34
 476 0016 0068     		ldr	r0, [r0]
 477 0018 0138     		sub	r0, r0, #1
 478 001a 421E     		sub	r2, r0, #1
 479 001c 9446     		mov	ip, r2
 480 001e 6346     		mov	r3, ip
 481 0020 7B61     		str	r3, [r7, #20]
 482 0022 8446     		mov	ip, r0
 483 0024 6146     		mov	r1, ip
 484 0026 0024     		mov	r4, #0
 485 0028 A446     		mov	ip, r4
 486 002a 6246     		mov	r2, ip
 487 002c 4B0F     		lsr	r3, r1, #29
 488 002e 9C46     		mov	ip, r3
 489 0030 D400     		lsl	r4, r2, #3
 490 0032 7C60     		str	r4, [r7, #4]
 491 0034 6346     		mov	r3, ip
 492 0036 7C68     		ldr	r4, [r7, #4]
 493 0038 2343     		orr	r3, r4
 494 003a 7B60     		str	r3, [r7, #4]
 495 003c CB00     		lsl	r3, r1, #3
 496 003e 021C     		mov	r2, r0
 497 0040 131C     		mov	r3, r2
 498 0042 0022     		mov	r2, #0
 499 0044 141C     		mov	r4, r2
 500 0046 5A0F     		lsr	r2, r3, #29
 501 0048 E600     		lsl	r6, r4, #3
 502 004a 1643     		orr	r6, r2
 503 004c DD00     		lsl	r5, r3, #3
 504 004e 031C     		mov	r3, r0
 505 0050 0733     		add	r3, r3, #7
 506 0052 DB08     		lsr	r3, r3, #3
 507 0054 DB00     		lsl	r3, r3, #3
 508 0056 6C46     		mov	r4, sp
 509 0058 E41A     		sub	r4, r4, r3
 510 005a A546     		mov	sp, r4
 511 005c 6B46     		mov	r3, sp
 512 005e 0033     		add	r3, r3, #0
 513 0060 3B61     		str	r3, [r7, #16]
  92:.\gps.c       ****     for(i =1;i<gpsBufferPointer-1;i++) {
 514              		.loc 1 92 0
 515 0062 0123     		mov	r3, #1
 516 0064 FB61     		str	r3, [r7, #28]
 517 0066 0AE0     		b	.L27
 518              	.L28:
  93:.\gps.c       ****         packet[i-1] = gpsBuffer[i];
 519              		.loc 1 93 0 discriminator 2
 520 0068 FB69     		ldr	r3, [r7, #28]
 521 006a 013B     		sub	r3, r3, #1
 522 006c 3A49     		ldr	r1, .L34+4
 523 006e FA69     		ldr	r2, [r7, #28]
ARM GAS  C:\Users\ALEXAN~1\AppData\Local\Temp\ccdQChDh.s 			page 12


 524 0070 8A18     		add	r2, r1, r2
 525 0072 1178     		ldrb	r1, [r2]
 526 0074 3A69     		ldr	r2, [r7, #16]
 527 0076 D154     		strb	r1, [r2, r3]
  92:.\gps.c       ****     for(i =1;i<gpsBufferPointer-1;i++) {
 528              		.loc 1 92 0 discriminator 2
 529 0078 FB69     		ldr	r3, [r7, #28]
 530 007a 0133     		add	r3, r3, #1
 531 007c FB61     		str	r3, [r7, #28]
 532              	.L27:
  92:.\gps.c       ****     for(i =1;i<gpsBufferPointer-1;i++) {
 533              		.loc 1 92 0 is_stmt 0 discriminator 1
 534 007e 354B     		ldr	r3, .L34
 535 0080 1B68     		ldr	r3, [r3]
 536 0082 5A1E     		sub	r2, r3, #1
 537 0084 FB69     		ldr	r3, [r7, #28]
 538 0086 9A42     		cmp	r2, r3
 539 0088 EEDC     		bgt	.L28
  94:.\gps.c       ****     }
  95:.\gps.c       ****     
  96:.\gps.c       **** //    UART_PC_UartPutString(packet);
  97:.\gps.c       **** //    UART_PC_UartPutChar(0xd);
  98:.\gps.c       ****     
  99:.\gps.c       ****     char* token = strtok(packet, ",");
 540              		.loc 1 99 0 is_stmt 1
 541 008a 3A69     		ldr	r2, [r7, #16]
 542 008c 334B     		ldr	r3, .L34+8
 543 008e 101C     		mov	r0, r2
 544 0090 191C     		mov	r1, r3
 545 0092 FFF7FEFF 		bl	strtok
 546 0096 031C     		mov	r3, r0
 547 0098 BB61     		str	r3, [r7, #24]
 100:.\gps.c       ****     i = 0;
 548              		.loc 1 100 0
 549 009a 0023     		mov	r3, #0
 550 009c FB61     		str	r3, [r7, #28]
 101:.\gps.c       ****     while( token != NULL ) 
 551              		.loc 1 101 0
 552 009e 4FE0     		b	.L29
 553              	.L33:
 102:.\gps.c       ****     {
 103:.\gps.c       ****         if (i == 1 && strcmp(cmd, "GPGGA") == 0) {
 554              		.loc 1 103 0
 555 00a0 FB69     		ldr	r3, [r7, #28]
 556 00a2 012B     		cmp	r3, #1
 557 00a4 15D1     		bne	.L30
 558              		.loc 1 103 0 is_stmt 0 discriminator 1
 559 00a6 FA68     		ldr	r2, [r7, #12]
 560 00a8 2D4B     		ldr	r3, .L34+12
 561 00aa 101C     		mov	r0, r2
 562 00ac 191C     		mov	r1, r3
 563 00ae FFF7FEFF 		bl	strcmp
 564 00b2 031C     		mov	r3, r0
 565 00b4 002B     		cmp	r3, #0
 566 00b6 0CD1     		bne	.L30
 104:.\gps.c       ****             time_ = atof(token);
 567              		.loc 1 104 0 is_stmt 1
ARM GAS  C:\Users\ALEXAN~1\AppData\Local\Temp\ccdQChDh.s 			page 13


 568 00b8 BB69     		ldr	r3, [r7, #24]
 569 00ba 181C     		mov	r0, r3
 570 00bc FFF7FEFF 		bl	atof
 571 00c0 031C     		mov	r3, r0
 572 00c2 0C1C     		mov	r4, r1
 573 00c4 181C     		mov	r0, r3
 574 00c6 211C     		mov	r1, r4
 575 00c8 FFF7FEFF 		bl	__aeabi_d2iz
 576 00cc 021C     		mov	r2, r0
 577 00ce 254B     		ldr	r3, .L34+16
 578 00d0 1A60     		str	r2, [r3]
 579              	.L30:
 105:.\gps.c       ****         }
 106:.\gps.c       ****         if (i == 6 && strcmp(cmd, "GPVTG") == 0) {
 580              		.loc 1 106 0
 581 00d2 FB69     		ldr	r3, [r7, #28]
 582 00d4 062B     		cmp	r3, #6
 583 00d6 15D1     		bne	.L31
 584              		.loc 1 106 0 is_stmt 0 discriminator 1
 585 00d8 FA68     		ldr	r2, [r7, #12]
 586 00da 234B     		ldr	r3, .L34+20
 587 00dc 101C     		mov	r0, r2
 588 00de 191C     		mov	r1, r3
 589 00e0 FFF7FEFF 		bl	strcmp
 590 00e4 031C     		mov	r3, r0
 591 00e6 002B     		cmp	r3, #0
 592 00e8 0CD1     		bne	.L31
 107:.\gps.c       ****             speed_ = atof(token);
 593              		.loc 1 107 0 is_stmt 1
 594 00ea BB69     		ldr	r3, [r7, #24]
 595 00ec 181C     		mov	r0, r3
 596 00ee FFF7FEFF 		bl	atof
 597 00f2 031C     		mov	r3, r0
 598 00f4 0C1C     		mov	r4, r1
 599 00f6 181C     		mov	r0, r3
 600 00f8 211C     		mov	r1, r4
 601 00fa FFF7FEFF 		bl	__aeabi_d2iz
 602 00fe 021C     		mov	r2, r0
 603 0100 1A4B     		ldr	r3, .L34+24
 604 0102 1A60     		str	r2, [r3]
 605              	.L31:
 108:.\gps.c       ****         }
 109:.\gps.c       **** //        if (i == 2 && strcmp(cmd, "GPGGA") == 0) {
 110:.\gps.c       **** //            latitude = atof(token);
 111:.\gps.c       **** //        }
 112:.\gps.c       **** //        if (i == 3 && strcmp(cmd, "GPGGA") == 0) {
 113:.\gps.c       **** //            sscanf(token, "%c", &latitude_pos);
 114:.\gps.c       **** //        }
 115:.\gps.c       **** //        if (i == 4 && strcmp(cmd, "GPGGA") == 0) {
 116:.\gps.c       **** //            longitude = atof(token);;
 117:.\gps.c       **** //        }
 118:.\gps.c       **** //        if (i == 5 && strcmp(cmd, "GPGGA") == 0) {
 119:.\gps.c       **** //            sscanf(token, "%c", &longitude_pos);
 120:.\gps.c       **** //        }
 121:.\gps.c       ****         if (i == 7 && strcmp(cmd, "GPGGA") == 0) {
 606              		.loc 1 121 0
 607 0104 FB69     		ldr	r3, [r7, #28]
ARM GAS  C:\Users\ALEXAN~1\AppData\Local\Temp\ccdQChDh.s 			page 14


 608 0106 072B     		cmp	r3, #7
 609 0108 10D1     		bne	.L32
 610              		.loc 1 121 0 is_stmt 0 discriminator 1
 611 010a FA68     		ldr	r2, [r7, #12]
 612 010c 144B     		ldr	r3, .L34+12
 613 010e 101C     		mov	r0, r2
 614 0110 191C     		mov	r1, r3
 615 0112 FFF7FEFF 		bl	strcmp
 616 0116 031C     		mov	r3, r0
 617 0118 002B     		cmp	r3, #0
 618 011a 07D1     		bne	.L32
 122:.\gps.c       ****             sscanf(token, "%d", &numberOfSate_);
 619              		.loc 1 122 0 is_stmt 1
 620 011c B969     		ldr	r1, [r7, #24]
 621 011e 144A     		ldr	r2, .L34+28
 622 0120 144B     		ldr	r3, .L34+32
 623 0122 081C     		mov	r0, r1
 624 0124 111C     		mov	r1, r2
 625 0126 1A1C     		mov	r2, r3
 626 0128 FFF7FEFF 		bl	sscanf
 627              	.L32:
 123:.\gps.c       ****         }
 124:.\gps.c       **** //        if (i == 9 && strcmp(cmd, "GPGGA") == 0) {
 125:.\gps.c       **** //            altitude = atof(token);
 126:.\gps.c       **** //        }
 127:.\gps.c       ****         token = strtok(NULL, ",");
 628              		.loc 1 127 0
 629 012c 0B4B     		ldr	r3, .L34+8
 630 012e 0020     		mov	r0, #0
 631 0130 191C     		mov	r1, r3
 632 0132 FFF7FEFF 		bl	strtok
 633 0136 031C     		mov	r3, r0
 634 0138 BB61     		str	r3, [r7, #24]
 128:.\gps.c       ****         i++;
 635              		.loc 1 128 0
 636 013a FB69     		ldr	r3, [r7, #28]
 637 013c 0133     		add	r3, r3, #1
 638 013e FB61     		str	r3, [r7, #28]
 639              	.L29:
 101:.\gps.c       ****     while( token != NULL ) 
 640              		.loc 1 101 0 discriminator 1
 641 0140 BB69     		ldr	r3, [r7, #24]
 642 0142 002B     		cmp	r3, #0
 643 0144 ACD1     		bne	.L33
 644 0146 C546     		mov	sp, r8
 129:.\gps.c       ****     }
 130:.\gps.c       **** }
 645              		.loc 1 130 0
 646 0148 BD46     		mov	sp, r7
 647 014a 08B0     		add	sp, sp, #32
 648              		@ sp needed for prologue
 649 014c 04BC     		pop	{r2}
 650 014e 9046     		mov	r8, r2
 651 0150 F0BD     		pop	{r4, r5, r6, r7, pc}
 652              	.L35:
 653 0152 C046     		.align	2
 654              	.L34:
ARM GAS  C:\Users\ALEXAN~1\AppData\Local\Temp\ccdQChDh.s 			page 15


 655 0154 00000000 		.word	gpsBufferPointer
 656 0158 00000000 		.word	gpsBuffer
 657 015c 30000000 		.word	.LC19
 658 0160 18000000 		.word	.LC9
 659 0164 00000000 		.word	time_
 660 0168 20000000 		.word	.LC12
 661 016c 00000000 		.word	speed_
 662 0170 34000000 		.word	.LC25
 663 0174 00000000 		.word	numberOfSate_
 664              		.cfi_endproc
 665              	.LFE39:
 666              		.size	handleGPSData, .-handleGPSData
 667              		.section	.text.compareGPSCMD,"ax",%progbits
 668              		.align	2
 669              		.global	compareGPSCMD
 670              		.code	16
 671              		.thumb_func
 672              		.type	compareGPSCMD, %function
 673              	compareGPSCMD:
 674              	.LFB40:
 131:.\gps.c       **** 
 132:.\gps.c       **** int compareGPSCMD(char* cmd) {
 675              		.loc 1 132 0
 676              		.cfi_startproc
 677 0000 80B5     		push	{r7, lr}
 678              	.LCFI19:
 679              		.cfi_def_cfa_offset 8
 680              		.cfi_offset 7, -8
 681              		.cfi_offset 14, -4
 682 0002 84B0     		sub	sp, sp, #16
 683              	.LCFI20:
 684              		.cfi_def_cfa_offset 24
 685 0004 00AF     		add	r7, sp, #0
 686              	.LCFI21:
 687              		.cfi_def_cfa_register 7
 688 0006 7860     		str	r0, [r7, #4]
 133:.\gps.c       ****     int i = 0;
 689              		.loc 1 133 0
 690 0008 0023     		mov	r3, #0
 691 000a FB60     		str	r3, [r7, #12]
 134:.\gps.c       ****     int correct = 0;
 692              		.loc 1 134 0
 693 000c 0023     		mov	r3, #0
 694 000e BB60     		str	r3, [r7, #8]
 135:.\gps.c       ****     for(i =1;i<7;i++) {
 695              		.loc 1 135 0
 696 0010 0123     		mov	r3, #1
 697 0012 FB60     		str	r3, [r7, #12]
 698 0014 10E0     		b	.L37
 699              	.L39:
 136:.\gps.c       ****         if (cmd[i-1] == gpsBuffer[i])
 700              		.loc 1 136 0
 701 0016 FB68     		ldr	r3, [r7, #12]
 702 0018 013B     		sub	r3, r3, #1
 703 001a 7A68     		ldr	r2, [r7, #4]
 704 001c D318     		add	r3, r2, r3
 705 001e 1A78     		ldrb	r2, [r3]
ARM GAS  C:\Users\ALEXAN~1\AppData\Local\Temp\ccdQChDh.s 			page 16


 706 0020 0B49     		ldr	r1, .L41
 707 0022 FB68     		ldr	r3, [r7, #12]
 708 0024 CB18     		add	r3, r1, r3
 709 0026 1B78     		ldrb	r3, [r3]
 710 0028 9A42     		cmp	r2, r3
 711 002a 02D1     		bne	.L38
 137:.\gps.c       ****             correct++;
 712              		.loc 1 137 0
 713 002c BB68     		ldr	r3, [r7, #8]
 714 002e 0133     		add	r3, r3, #1
 715 0030 BB60     		str	r3, [r7, #8]
 716              	.L38:
 135:.\gps.c       ****     for(i =1;i<7;i++) {
 717              		.loc 1 135 0
 718 0032 FB68     		ldr	r3, [r7, #12]
 719 0034 0133     		add	r3, r3, #1
 720 0036 FB60     		str	r3, [r7, #12]
 721              	.L37:
 135:.\gps.c       ****     for(i =1;i<7;i++) {
 722              		.loc 1 135 0 is_stmt 0 discriminator 1
 723 0038 FB68     		ldr	r3, [r7, #12]
 724 003a 062B     		cmp	r3, #6
 725 003c EBDD     		ble	.L39
 138:.\gps.c       ****     }
 139:.\gps.c       ****     return correct == 6;
 726              		.loc 1 139 0 is_stmt 1
 727 003e BB68     		ldr	r3, [r7, #8]
 728 0040 063B     		sub	r3, r3, #6
 729 0042 5A42     		neg	r2, r3
 730 0044 5341     		adc	r3, r3, r2
 731 0046 DBB2     		uxtb	r3, r3
 140:.\gps.c       **** }
 732              		.loc 1 140 0
 733 0048 181C     		mov	r0, r3
 734 004a BD46     		mov	sp, r7
 735 004c 04B0     		add	sp, sp, #16
 736              		@ sp needed for prologue
 737 004e 80BD     		pop	{r7, pc}
 738              	.L42:
 739              		.align	2
 740              	.L41:
 741 0050 00000000 		.word	gpsBuffer
 742              		.cfi_endproc
 743              	.LFE40:
 744              		.size	compareGPSCMD, .-compareGPSCMD
 745              		.section	.text.resetGPSBuffer,"ax",%progbits
 746              		.align	2
 747              		.global	resetGPSBuffer
 748              		.code	16
 749              		.thumb_func
 750              		.type	resetGPSBuffer, %function
 751              	resetGPSBuffer:
 752              	.LFB41:
 141:.\gps.c       **** void resetGPSBuffer() {
 753              		.loc 1 141 0
 754              		.cfi_startproc
 755 0000 80B5     		push	{r7, lr}
ARM GAS  C:\Users\ALEXAN~1\AppData\Local\Temp\ccdQChDh.s 			page 17


 756              	.LCFI22:
 757              		.cfi_def_cfa_offset 8
 758              		.cfi_offset 7, -8
 759              		.cfi_offset 14, -4
 760 0002 82B0     		sub	sp, sp, #8
 761              	.LCFI23:
 762              		.cfi_def_cfa_offset 16
 763 0004 00AF     		add	r7, sp, #0
 764              	.LCFI24:
 765              		.cfi_def_cfa_register 7
 142:.\gps.c       ****     int i;
 143:.\gps.c       ****     for (i=0;i<300;i++){
 766              		.loc 1 143 0
 767 0006 0023     		mov	r3, #0
 768 0008 7B60     		str	r3, [r7, #4]
 769 000a 07E0     		b	.L44
 770              	.L45:
 144:.\gps.c       ****      gpsBuffer[i]=' ';             
 771              		.loc 1 144 0 discriminator 2
 772 000c 074A     		ldr	r2, .L46
 773 000e 7B68     		ldr	r3, [r7, #4]
 774 0010 D318     		add	r3, r2, r3
 775 0012 2022     		mov	r2, #32
 776 0014 1A70     		strb	r2, [r3]
 143:.\gps.c       ****     for (i=0;i<300;i++){
 777              		.loc 1 143 0 discriminator 2
 778 0016 7B68     		ldr	r3, [r7, #4]
 779 0018 0133     		add	r3, r3, #1
 780 001a 7B60     		str	r3, [r7, #4]
 781              	.L44:
 143:.\gps.c       ****     for (i=0;i<300;i++){
 782              		.loc 1 143 0 is_stmt 0 discriminator 1
 783 001c 7A68     		ldr	r2, [r7, #4]
 784 001e 044B     		ldr	r3, .L46+4
 785 0020 9A42     		cmp	r2, r3
 786 0022 F3DD     		ble	.L45
 145:.\gps.c       ****    } 
 146:.\gps.c       **** }...
 787              		.loc 1 146 0 is_stmt 1
 788 0024 BD46     		mov	sp, r7
 789 0026 02B0     		add	sp, sp, #8
 790              		@ sp needed for prologue
 791 0028 80BD     		pop	{r7, pc}
 792              	.L47:
 793 002a C046     		.align	2
 794              	.L46:
 795 002c 00000000 		.word	gpsBuffer
 796 0030 2B010000 		.word	299
 797              		.cfi_endproc
 798              	.LFE41:
 799              		.size	resetGPSBuffer, .-resetGPSBuffer
 800              		.text
 801              	.Letext0:
 802              		.file 2 "./Generated_Source/PSoC4/cytypes.h"
 803              		.section	.debug_info,"",%progbits
 804              	.Ldebug_info0:
 805 0000 3C030000 		.4byte	0x33c
ARM GAS  C:\Users\ALEXAN~1\AppData\Local\Temp\ccdQChDh.s 			page 18


 806 0004 0200     		.2byte	0x2
 807 0006 00000000 		.4byte	.Ldebug_abbrev0
 808 000a 04       		.byte	0x4
 809 000b 01       		.uleb128 0x1
 810 000c C5010000 		.4byte	.LASF38
 811 0010 01       		.byte	0x1
 812 0011 2D000000 		.4byte	.LASF39
 813 0015 1C010000 		.4byte	.LASF40
 814 0019 00000000 		.4byte	.Ldebug_ranges0+0
 815 001d 00000000 		.4byte	0
 816 0021 00000000 		.4byte	0
 817 0025 00000000 		.4byte	.Ldebug_line0
 818 0029 02       		.uleb128 0x2
 819 002a 01       		.byte	0x1
 820 002b 06       		.byte	0x6
 821 002c 20020000 		.4byte	.LASF0
 822 0030 02       		.uleb128 0x2
 823 0031 01       		.byte	0x1
 824 0032 08       		.byte	0x8
 825 0033 61000000 		.4byte	.LASF1
 826 0037 02       		.uleb128 0x2
 827 0038 02       		.byte	0x2
 828 0039 05       		.byte	0x5
 829 003a B5010000 		.4byte	.LASF2
 830 003e 02       		.uleb128 0x2
 831 003f 02       		.byte	0x2
 832 0040 07       		.byte	0x7
 833 0041 8B000000 		.4byte	.LASF3
 834 0045 02       		.uleb128 0x2
 835 0046 04       		.byte	0x4
 836 0047 05       		.byte	0x5
 837 0048 16000000 		.4byte	.LASF4
 838 004c 02       		.uleb128 0x2
 839 004d 04       		.byte	0x4
 840 004e 07       		.byte	0x7
 841 004f 79000000 		.4byte	.LASF5
 842 0053 02       		.uleb128 0x2
 843 0054 08       		.byte	0x8
 844 0055 05       		.byte	0x5
 845 0056 65010000 		.4byte	.LASF6
 846 005a 02       		.uleb128 0x2
 847 005b 08       		.byte	0x8
 848 005c 07       		.byte	0x7
 849 005d FF000000 		.4byte	.LASF7
 850 0061 03       		.uleb128 0x3
 851 0062 04       		.byte	0x4
 852 0063 05       		.byte	0x5
 853 0064 696E7400 		.ascii	"int\000"
 854 0068 02       		.uleb128 0x2
 855 0069 04       		.byte	0x4
 856 006a 07       		.byte	0x7
 857 006b F2000000 		.4byte	.LASF8
 858 006f 04       		.uleb128 0x4
 859 0070 BF010000 		.4byte	.LASF41
 860 0074 02       		.byte	0x2
 861 0075 5B       		.byte	0x5b
 862 0076 30000000 		.4byte	0x30
ARM GAS  C:\Users\ALEXAN~1\AppData\Local\Temp\ccdQChDh.s 			page 19


 863 007a 02       		.uleb128 0x2
 864 007b 04       		.byte	0x4
 865 007c 04       		.byte	0x4
 866 007d 4A000000 		.4byte	.LASF9
 867 0081 02       		.uleb128 0x2
 868 0082 08       		.byte	0x8
 869 0083 04       		.byte	0x4
 870 0084 C1000000 		.4byte	.LASF10
 871 0088 02       		.uleb128 0x2
 872 0089 01       		.byte	0x1
 873 008a 08       		.byte	0x8
 874 008b 8E010000 		.4byte	.LASF11
 875 008f 02       		.uleb128 0x2
 876 0090 04       		.byte	0x4
 877 0091 07       		.byte	0x7
 878 0092 56010000 		.4byte	.LASF12
 879 0096 05       		.uleb128 0x5
 880 0097 04       		.byte	0x4
 881 0098 88000000 		.4byte	0x88
 882 009c 02       		.uleb128 0x2
 883 009d 08       		.byte	0x8
 884 009e 04       		.byte	0x4
 885 009f C8000000 		.4byte	.LASF13
 886 00a3 06       		.uleb128 0x6
 887 00a4 01       		.byte	0x1
 888 00a5 35000000 		.4byte	.LASF14
 889 00a9 01       		.byte	0x1
 890 00aa 1F       		.byte	0x1f
 891 00ab 61000000 		.4byte	0x61
 892 00af 00000000 		.4byte	.LFB33
 893 00b3 14000000 		.4byte	.LFE33
 894 00b7 00000000 		.4byte	.LLST0
 895 00bb 01       		.byte	0x1
 896 00bc 06       		.uleb128 0x6
 897 00bd 01       		.byte	0x1
 898 00be 06000000 		.4byte	.LASF15
 899 00c2 01       		.byte	0x1
 900 00c3 23       		.byte	0x23
 901 00c4 61000000 		.4byte	0x61
 902 00c8 00000000 		.4byte	.LFB34
 903 00cc 14000000 		.4byte	.LFE34
 904 00d0 2C000000 		.4byte	.LLST1
 905 00d4 01       		.byte	0x1
 906 00d5 06       		.uleb128 0x6
 907 00d6 01       		.byte	0x1
 908 00d7 B5000000 		.4byte	.LASF16
 909 00db 01       		.byte	0x1
 910 00dc 26       		.byte	0x26
 911 00dd 61000000 		.4byte	0x61
 912 00e1 00000000 		.4byte	.LFB35
 913 00e5 14000000 		.4byte	.LFE35
 914 00e9 58000000 		.4byte	.LLST2
 915 00ed 01       		.byte	0x1
 916 00ee 07       		.uleb128 0x7
 917 00ef 01       		.byte	0x1
 918 00f0 D4000000 		.4byte	.LASF17
 919 00f4 01       		.byte	0x1
ARM GAS  C:\Users\ALEXAN~1\AppData\Local\Temp\ccdQChDh.s 			page 20


 920 00f5 29       		.byte	0x29
 921 00f6 96000000 		.4byte	0x96
 922 00fa 00000000 		.4byte	.LFB36
 923 00fe 26000000 		.4byte	.LFE36
 924 0102 84000000 		.4byte	.LLST3
 925 0106 01       		.byte	0x1
 926 0107 1A010000 		.4byte	0x11a
 927 010b 08       		.uleb128 0x8
 928 010c 14020000 		.4byte	.LASF19
 929 0110 01       		.byte	0x1
 930 0111 2A       		.byte	0x2a
 931 0112 1A010000 		.4byte	0x11a
 932 0116 02       		.byte	0x2
 933 0117 91       		.byte	0x91
 934 0118 60       		.sleb128 -32
 935 0119 00       		.byte	0
 936 011a 09       		.uleb128 0x9
 937 011b 88000000 		.4byte	0x88
 938 011f 2A010000 		.4byte	0x12a
 939 0123 0A       		.uleb128 0xa
 940 0124 8F000000 		.4byte	0x8f
 941 0128 15       		.byte	0x15
 942 0129 00       		.byte	0
 943 012a 07       		.uleb128 0x7
 944 012b 01       		.byte	0x1
 945 012c 9E000000 		.4byte	.LASF18
 946 0130 01       		.byte	0x1
 947 0131 2E       		.byte	0x2e
 948 0132 96000000 		.4byte	0x96
 949 0136 00000000 		.4byte	.LFB37
 950 013a 26000000 		.4byte	.LFE37
 951 013e BC000000 		.4byte	.LLST4
 952 0142 01       		.byte	0x1
 953 0143 56010000 		.4byte	0x156
 954 0147 08       		.uleb128 0x8
 955 0148 14020000 		.4byte	.LASF19
 956 014c 01       		.byte	0x1
 957 014d 2F       		.byte	0x2f
 958 014e 56010000 		.4byte	0x156
 959 0152 02       		.byte	0x2
 960 0153 91       		.byte	0x91
 961 0154 74       		.sleb128 -12
 962 0155 00       		.byte	0
 963 0156 09       		.uleb128 0x9
 964 0157 88000000 		.4byte	0x88
 965 015b 66010000 		.4byte	0x166
 966 015f 0A       		.uleb128 0xa
 967 0160 8F000000 		.4byte	0x8f
 968 0164 03       		.byte	0x3
 969 0165 00       		.byte	0
 970 0166 0B       		.uleb128 0xb
 971 0167 01       		.byte	0x1
 972 0168 82010000 		.4byte	.LASF28
 973 016c 01       		.byte	0x1
 974 016d 34       		.byte	0x34
 975 016e 00000000 		.4byte	.LFB38
 976 0172 E4000000 		.4byte	.LFE38
ARM GAS  C:\Users\ALEXAN~1\AppData\Local\Temp\ccdQChDh.s 			page 21


 977 0176 F4000000 		.4byte	.LLST5
 978 017a 01       		.byte	0x1
 979 017b CC010000 		.4byte	0x1cc
 980 017f 08       		.uleb128 0x8
 981 0180 3B010000 		.4byte	.LASF20
 982 0184 01       		.byte	0x1
 983 0185 35       		.byte	0x35
 984 0186 61000000 		.4byte	0x61
 985 018a 02       		.byte	0x2
 986 018b 91       		.byte	0x91
 987 018c 68       		.sleb128 -24
 988 018d 08       		.uleb128 0x8
 989 018e A8010000 		.4byte	.LASF21
 990 0192 01       		.byte	0x1
 991 0193 36       		.byte	0x36
 992 0194 61000000 		.4byte	0x61
 993 0198 02       		.byte	0x2
 994 0199 91       		.byte	0x91
 995 019a 6C       		.sleb128 -20
 996 019b 0C       		.uleb128 0xc
 997 019c 10000000 		.4byte	.LBB2
 998 01a0 B6000000 		.4byte	.LBE2
 999 01a4 08       		.uleb128 0x8
 1000 01a5 6F000000 		.4byte	.LASF22
 1001 01a9 01       		.byte	0x1
 1002 01aa 38       		.byte	0x38
 1003 01ab 6F000000 		.4byte	0x6f
 1004 01af 02       		.byte	0x2
 1005 01b0 91       		.byte	0x91
 1006 01b1 67       		.sleb128 -25
 1007 01b2 0C       		.uleb128 0xc
 1008 01b3 22000000 		.4byte	.LBB3
 1009 01b7 B6000000 		.4byte	.LBE3
 1010 01bb 08       		.uleb128 0x8
 1011 01bc AE000000 		.4byte	.LASF23
 1012 01c0 01       		.byte	0x1
 1013 01c1 3B       		.byte	0x3b
 1014 01c2 88000000 		.4byte	0x88
 1015 01c6 02       		.byte	0x2
 1016 01c7 91       		.byte	0x91
 1017 01c8 66       		.sleb128 -26
 1018 01c9 00       		.byte	0
 1019 01ca 00       		.byte	0
 1020 01cb 00       		.byte	0
 1021 01cc 0D       		.uleb128 0xd
 1022 01cd 01       		.byte	0x1
 1023 01ce 2C020000 		.4byte	.LASF24
 1024 01d2 01       		.byte	0x1
 1025 01d3 59       		.byte	0x59
 1026 01d4 01       		.byte	0x1
 1027 01d5 00000000 		.4byte	.LFB39
 1028 01d9 78010000 		.4byte	.LFE39
 1029 01dd 2C010000 		.4byte	.LLST6
 1030 01e1 01       		.byte	0x1
 1031 01e2 1E020000 		.4byte	0x21e
 1032 01e6 0E       		.uleb128 0xe
 1033 01e7 636D6400 		.ascii	"cmd\000"
ARM GAS  C:\Users\ALEXAN~1\AppData\Local\Temp\ccdQChDh.s 			page 22


 1034 01eb 01       		.byte	0x1
 1035 01ec 59       		.byte	0x59
 1036 01ed 96000000 		.4byte	0x96
 1037 01f1 02       		.byte	0x2
 1038 01f2 91       		.byte	0x91
 1039 01f3 54       		.sleb128 -44
 1040 01f4 0F       		.uleb128 0xf
 1041 01f5 6900     		.ascii	"i\000"
 1042 01f7 01       		.byte	0x1
 1043 01f8 5A       		.byte	0x5a
 1044 01f9 61000000 		.4byte	0x61
 1045 01fd 02       		.byte	0x2
 1046 01fe 91       		.byte	0x91
 1047 01ff 64       		.sleb128 -28
 1048 0200 08       		.uleb128 0x8
 1049 0201 EB000000 		.4byte	.LASF25
 1050 0205 01       		.byte	0x1
 1051 0206 5B       		.byte	0x5b
 1052 0207 1E020000 		.4byte	0x21e
 1053 020b 03       		.byte	0x3
 1054 020c 91       		.byte	0x91
 1055 020d 58       		.sleb128 -40
 1056 020e 06       		.byte	0x6
 1057 020f 08       		.uleb128 0x8
 1058 0210 0E020000 		.4byte	.LASF26
 1059 0214 01       		.byte	0x1
 1060 0215 63       		.byte	0x63
 1061 0216 96000000 		.4byte	0x96
 1062 021a 02       		.byte	0x2
 1063 021b 91       		.byte	0x91
 1064 021c 60       		.sleb128 -32
 1065 021d 00       		.byte	0
 1066 021e 09       		.uleb128 0x9
 1067 021f 88000000 		.4byte	0x88
 1068 0223 31020000 		.4byte	0x231
 1069 0227 10       		.uleb128 0x10
 1070 0228 8F000000 		.4byte	0x8f
 1071 022c 03       		.byte	0x3
 1072 022d 91       		.byte	0x91
 1073 022e 5C       		.sleb128 -36
 1074 022f 06       		.byte	0x6
 1075 0230 00       		.byte	0
 1076 0231 11       		.uleb128 0x11
 1077 0232 01       		.byte	0x1
 1078 0233 48010000 		.4byte	.LASF42
 1079 0237 01       		.byte	0x1
 1080 0238 84       		.byte	0x84
 1081 0239 01       		.byte	0x1
 1082 023a 61000000 		.4byte	0x61
 1083 023e 00000000 		.4byte	.LFB40
 1084 0242 54000000 		.4byte	.LFE40
 1085 0246 70010000 		.4byte	.LLST7
 1086 024a 01       		.byte	0x1
 1087 024b 78020000 		.4byte	0x278
 1088 024f 0E       		.uleb128 0xe
 1089 0250 636D6400 		.ascii	"cmd\000"
 1090 0254 01       		.byte	0x1
ARM GAS  C:\Users\ALEXAN~1\AppData\Local\Temp\ccdQChDh.s 			page 23


 1091 0255 84       		.byte	0x84
 1092 0256 96000000 		.4byte	0x96
 1093 025a 02       		.byte	0x2
 1094 025b 91       		.byte	0x91
 1095 025c 6C       		.sleb128 -20
 1096 025d 0F       		.uleb128 0xf
 1097 025e 6900     		.ascii	"i\000"
 1098 0260 01       		.byte	0x1
 1099 0261 85       		.byte	0x85
 1100 0262 61000000 		.4byte	0x61
 1101 0266 02       		.byte	0x2
 1102 0267 91       		.byte	0x91
 1103 0268 74       		.sleb128 -12
 1104 0269 08       		.uleb128 0x8
 1105 026a 1F000000 		.4byte	.LASF27
 1106 026e 01       		.byte	0x1
 1107 026f 86       		.byte	0x86
 1108 0270 61000000 		.4byte	0x61
 1109 0274 02       		.byte	0x2
 1110 0275 91       		.byte	0x91
 1111 0276 70       		.sleb128 -16
 1112 0277 00       		.byte	0
 1113 0278 12       		.uleb128 0x12
 1114 0279 01       		.byte	0x1
 1115 027a 73010000 		.4byte	.LASF29
 1116 027e 01       		.byte	0x1
 1117 027f 8D       		.byte	0x8d
 1118 0280 00000000 		.4byte	.LFB41
 1119 0284 34000000 		.4byte	.LFE41
 1120 0288 A8010000 		.4byte	.LLST8
 1121 028c 01       		.byte	0x1
 1122 028d 9E020000 		.4byte	0x29e
 1123 0291 0F       		.uleb128 0xf
 1124 0292 6900     		.ascii	"i\000"
 1125 0294 01       		.byte	0x1
 1126 0295 8E       		.byte	0x8e
 1127 0296 61000000 		.4byte	0x61
 1128 029a 02       		.byte	0x2
 1129 029b 91       		.byte	0x91
 1130 029c 74       		.sleb128 -12
 1131 029d 00       		.byte	0
 1132 029e 09       		.uleb128 0x9
 1133 029f 88000000 		.4byte	0x88
 1134 02a3 AF020000 		.4byte	0x2af
 1135 02a7 13       		.uleb128 0x13
 1136 02a8 8F000000 		.4byte	0x8f
 1137 02ac 2B01     		.2byte	0x12b
 1138 02ae 00       		.byte	0
 1139 02af 14       		.uleb128 0x14
 1140 02b0 40000000 		.4byte	.LASF30
 1141 02b4 01       		.byte	0x1
 1142 02b5 13       		.byte	0x13
 1143 02b6 9E020000 		.4byte	0x29e
 1144 02ba 01       		.byte	0x1
 1145 02bb 05       		.byte	0x5
 1146 02bc 03       		.byte	0x3
 1147 02bd 00000000 		.4byte	gpsBuffer
ARM GAS  C:\Users\ALEXAN~1\AppData\Local\Temp\ccdQChDh.s 			page 24


 1148 02c1 14       		.uleb128 0x14
 1149 02c2 50000000 		.4byte	.LASF31
 1150 02c6 01       		.byte	0x1
 1151 02c7 14       		.byte	0x14
 1152 02c8 61000000 		.4byte	0x61
 1153 02cc 01       		.byte	0x1
 1154 02cd 05       		.byte	0x5
 1155 02ce 03       		.byte	0x3
 1156 02cf 00000000 		.4byte	gpsBufferPointer
 1157 02d3 14       		.uleb128 0x14
 1158 02d4 5F010000 		.4byte	.LASF32
 1159 02d8 01       		.byte	0x1
 1160 02d9 15       		.byte	0x15
 1161 02da 96000000 		.4byte	0x96
 1162 02de 01       		.byte	0x1
 1163 02df 05       		.byte	0x5
 1164 02e0 03       		.byte	0x3
 1165 02e1 00000000 		.4byte	gpvtg
 1166 02e5 14       		.uleb128 0x14
 1167 02e6 16010000 		.4byte	.LASF33
 1168 02ea 01       		.byte	0x1
 1169 02eb 16       		.byte	0x16
 1170 02ec 96000000 		.4byte	0x96
 1171 02f0 01       		.byte	0x1
 1172 02f1 05       		.byte	0x5
 1173 02f2 03       		.byte	0x3
 1174 02f3 00000000 		.4byte	gpgga
 1175 02f7 14       		.uleb128 0x14
 1176 02f8 00000000 		.4byte	.LASF34
 1177 02fc 01       		.byte	0x1
 1178 02fd 17       		.byte	0x17
 1179 02fe 96000000 		.4byte	0x96
 1180 0302 01       		.byte	0x1
 1181 0303 05       		.byte	0x5
 1182 0304 03       		.byte	0x3
 1183 0305 00000000 		.4byte	gpgsv
 1184 0309 14       		.uleb128 0x14
 1185 030a A1010000 		.4byte	.LASF35
 1186 030e 01       		.byte	0x1
 1187 030f 19       		.byte	0x19
 1188 0310 61000000 		.4byte	0x61
 1189 0314 01       		.byte	0x1
 1190 0315 05       		.byte	0x5
 1191 0316 03       		.byte	0x3
 1192 0317 00000000 		.4byte	speed_
 1193 031b 14       		.uleb128 0x14
 1194 031c 93010000 		.4byte	.LASF36
 1195 0320 01       		.byte	0x1
 1196 0321 1A       		.byte	0x1a
 1197 0322 61000000 		.4byte	0x61
 1198 0326 01       		.byte	0x1
 1199 0327 05       		.byte	0x5
 1200 0328 03       		.byte	0x3
 1201 0329 00000000 		.4byte	numberOfSate_
 1202 032d 14       		.uleb128 0x14
 1203 032e 27000000 		.4byte	.LASF37
 1204 0332 01       		.byte	0x1
ARM GAS  C:\Users\ALEXAN~1\AppData\Local\Temp\ccdQChDh.s 			page 25


 1205 0333 1B       		.byte	0x1b
 1206 0334 61000000 		.4byte	0x61
 1207 0338 01       		.byte	0x1
 1208 0339 05       		.byte	0x5
 1209 033a 03       		.byte	0x3
 1210 033b 00000000 		.4byte	time_
 1211 033f 00       		.byte	0
 1212              		.section	.debug_abbrev,"",%progbits
 1213              	.Ldebug_abbrev0:
 1214 0000 01       		.uleb128 0x1
 1215 0001 11       		.uleb128 0x11
 1216 0002 01       		.byte	0x1
 1217 0003 25       		.uleb128 0x25
 1218 0004 0E       		.uleb128 0xe
 1219 0005 13       		.uleb128 0x13
 1220 0006 0B       		.uleb128 0xb
 1221 0007 03       		.uleb128 0x3
 1222 0008 0E       		.uleb128 0xe
 1223 0009 1B       		.uleb128 0x1b
 1224 000a 0E       		.uleb128 0xe
 1225 000b 55       		.uleb128 0x55
 1226 000c 06       		.uleb128 0x6
 1227 000d 11       		.uleb128 0x11
 1228 000e 01       		.uleb128 0x1
 1229 000f 52       		.uleb128 0x52
 1230 0010 01       		.uleb128 0x1
 1231 0011 10       		.uleb128 0x10
 1232 0012 06       		.uleb128 0x6
 1233 0013 00       		.byte	0
 1234 0014 00       		.byte	0
 1235 0015 02       		.uleb128 0x2
 1236 0016 24       		.uleb128 0x24
 1237 0017 00       		.byte	0
 1238 0018 0B       		.uleb128 0xb
 1239 0019 0B       		.uleb128 0xb
 1240 001a 3E       		.uleb128 0x3e
 1241 001b 0B       		.uleb128 0xb
 1242 001c 03       		.uleb128 0x3
 1243 001d 0E       		.uleb128 0xe
 1244 001e 00       		.byte	0
 1245 001f 00       		.byte	0
 1246 0020 03       		.uleb128 0x3
 1247 0021 24       		.uleb128 0x24
 1248 0022 00       		.byte	0
 1249 0023 0B       		.uleb128 0xb
 1250 0024 0B       		.uleb128 0xb
 1251 0025 3E       		.uleb128 0x3e
 1252 0026 0B       		.uleb128 0xb
 1253 0027 03       		.uleb128 0x3
 1254 0028 08       		.uleb128 0x8
 1255 0029 00       		.byte	0
 1256 002a 00       		.byte	0
 1257 002b 04       		.uleb128 0x4
 1258 002c 16       		.uleb128 0x16
 1259 002d 00       		.byte	0
 1260 002e 03       		.uleb128 0x3
 1261 002f 0E       		.uleb128 0xe
ARM GAS  C:\Users\ALEXAN~1\AppData\Local\Temp\ccdQChDh.s 			page 26


 1262 0030 3A       		.uleb128 0x3a
 1263 0031 0B       		.uleb128 0xb
 1264 0032 3B       		.uleb128 0x3b
 1265 0033 0B       		.uleb128 0xb
 1266 0034 49       		.uleb128 0x49
 1267 0035 13       		.uleb128 0x13
 1268 0036 00       		.byte	0
 1269 0037 00       		.byte	0
 1270 0038 05       		.uleb128 0x5
 1271 0039 0F       		.uleb128 0xf
 1272 003a 00       		.byte	0
 1273 003b 0B       		.uleb128 0xb
 1274 003c 0B       		.uleb128 0xb
 1275 003d 49       		.uleb128 0x49
 1276 003e 13       		.uleb128 0x13
 1277 003f 00       		.byte	0
 1278 0040 00       		.byte	0
 1279 0041 06       		.uleb128 0x6
 1280 0042 2E       		.uleb128 0x2e
 1281 0043 00       		.byte	0
 1282 0044 3F       		.uleb128 0x3f
 1283 0045 0C       		.uleb128 0xc
 1284 0046 03       		.uleb128 0x3
 1285 0047 0E       		.uleb128 0xe
 1286 0048 3A       		.uleb128 0x3a
 1287 0049 0B       		.uleb128 0xb
 1288 004a 3B       		.uleb128 0x3b
 1289 004b 0B       		.uleb128 0xb
 1290 004c 49       		.uleb128 0x49
 1291 004d 13       		.uleb128 0x13
 1292 004e 11       		.uleb128 0x11
 1293 004f 01       		.uleb128 0x1
 1294 0050 12       		.uleb128 0x12
 1295 0051 01       		.uleb128 0x1
 1296 0052 40       		.uleb128 0x40
 1297 0053 06       		.uleb128 0x6
 1298 0054 9742     		.uleb128 0x2117
 1299 0056 0C       		.uleb128 0xc
 1300 0057 00       		.byte	0
 1301 0058 00       		.byte	0
 1302 0059 07       		.uleb128 0x7
 1303 005a 2E       		.uleb128 0x2e
 1304 005b 01       		.byte	0x1
 1305 005c 3F       		.uleb128 0x3f
 1306 005d 0C       		.uleb128 0xc
 1307 005e 03       		.uleb128 0x3
 1308 005f 0E       		.uleb128 0xe
 1309 0060 3A       		.uleb128 0x3a
 1310 0061 0B       		.uleb128 0xb
 1311 0062 3B       		.uleb128 0x3b
 1312 0063 0B       		.uleb128 0xb
 1313 0064 49       		.uleb128 0x49
 1314 0065 13       		.uleb128 0x13
 1315 0066 11       		.uleb128 0x11
 1316 0067 01       		.uleb128 0x1
 1317 0068 12       		.uleb128 0x12
 1318 0069 01       		.uleb128 0x1
ARM GAS  C:\Users\ALEXAN~1\AppData\Local\Temp\ccdQChDh.s 			page 27


 1319 006a 40       		.uleb128 0x40
 1320 006b 06       		.uleb128 0x6
 1321 006c 9642     		.uleb128 0x2116
 1322 006e 0C       		.uleb128 0xc
 1323 006f 01       		.uleb128 0x1
 1324 0070 13       		.uleb128 0x13
 1325 0071 00       		.byte	0
 1326 0072 00       		.byte	0
 1327 0073 08       		.uleb128 0x8
 1328 0074 34       		.uleb128 0x34
 1329 0075 00       		.byte	0
 1330 0076 03       		.uleb128 0x3
 1331 0077 0E       		.uleb128 0xe
 1332 0078 3A       		.uleb128 0x3a
 1333 0079 0B       		.uleb128 0xb
 1334 007a 3B       		.uleb128 0x3b
 1335 007b 0B       		.uleb128 0xb
 1336 007c 49       		.uleb128 0x49
 1337 007d 13       		.uleb128 0x13
 1338 007e 02       		.uleb128 0x2
 1339 007f 0A       		.uleb128 0xa
 1340 0080 00       		.byte	0
 1341 0081 00       		.byte	0
 1342 0082 09       		.uleb128 0x9
 1343 0083 01       		.uleb128 0x1
 1344 0084 01       		.byte	0x1
 1345 0085 49       		.uleb128 0x49
 1346 0086 13       		.uleb128 0x13
 1347 0087 01       		.uleb128 0x1
 1348 0088 13       		.uleb128 0x13
 1349 0089 00       		.byte	0
 1350 008a 00       		.byte	0
 1351 008b 0A       		.uleb128 0xa
 1352 008c 21       		.uleb128 0x21
 1353 008d 00       		.byte	0
 1354 008e 49       		.uleb128 0x49
 1355 008f 13       		.uleb128 0x13
 1356 0090 2F       		.uleb128 0x2f
 1357 0091 0B       		.uleb128 0xb
 1358 0092 00       		.byte	0
 1359 0093 00       		.byte	0
 1360 0094 0B       		.uleb128 0xb
 1361 0095 2E       		.uleb128 0x2e
 1362 0096 01       		.byte	0x1
 1363 0097 3F       		.uleb128 0x3f
 1364 0098 0C       		.uleb128 0xc
 1365 0099 03       		.uleb128 0x3
 1366 009a 0E       		.uleb128 0xe
 1367 009b 3A       		.uleb128 0x3a
 1368 009c 0B       		.uleb128 0xb
 1369 009d 3B       		.uleb128 0x3b
 1370 009e 0B       		.uleb128 0xb
 1371 009f 11       		.uleb128 0x11
 1372 00a0 01       		.uleb128 0x1
 1373 00a1 12       		.uleb128 0x12
 1374 00a2 01       		.uleb128 0x1
 1375 00a3 40       		.uleb128 0x40
ARM GAS  C:\Users\ALEXAN~1\AppData\Local\Temp\ccdQChDh.s 			page 28


 1376 00a4 06       		.uleb128 0x6
 1377 00a5 9642     		.uleb128 0x2116
 1378 00a7 0C       		.uleb128 0xc
 1379 00a8 01       		.uleb128 0x1
 1380 00a9 13       		.uleb128 0x13
 1381 00aa 00       		.byte	0
 1382 00ab 00       		.byte	0
 1383 00ac 0C       		.uleb128 0xc
 1384 00ad 0B       		.uleb128 0xb
 1385 00ae 01       		.byte	0x1
 1386 00af 11       		.uleb128 0x11
 1387 00b0 01       		.uleb128 0x1
 1388 00b1 12       		.uleb128 0x12
 1389 00b2 01       		.uleb128 0x1
 1390 00b3 00       		.byte	0
 1391 00b4 00       		.byte	0
 1392 00b5 0D       		.uleb128 0xd
 1393 00b6 2E       		.uleb128 0x2e
 1394 00b7 01       		.byte	0x1
 1395 00b8 3F       		.uleb128 0x3f
 1396 00b9 0C       		.uleb128 0xc
 1397 00ba 03       		.uleb128 0x3
 1398 00bb 0E       		.uleb128 0xe
 1399 00bc 3A       		.uleb128 0x3a
 1400 00bd 0B       		.uleb128 0xb
 1401 00be 3B       		.uleb128 0x3b
 1402 00bf 0B       		.uleb128 0xb
 1403 00c0 27       		.uleb128 0x27
 1404 00c1 0C       		.uleb128 0xc
 1405 00c2 11       		.uleb128 0x11
 1406 00c3 01       		.uleb128 0x1
 1407 00c4 12       		.uleb128 0x12
 1408 00c5 01       		.uleb128 0x1
 1409 00c6 40       		.uleb128 0x40
 1410 00c7 06       		.uleb128 0x6
 1411 00c8 9642     		.uleb128 0x2116
 1412 00ca 0C       		.uleb128 0xc
 1413 00cb 01       		.uleb128 0x1
 1414 00cc 13       		.uleb128 0x13
 1415 00cd 00       		.byte	0
 1416 00ce 00       		.byte	0
 1417 00cf 0E       		.uleb128 0xe
 1418 00d0 05       		.uleb128 0x5
 1419 00d1 00       		.byte	0
 1420 00d2 03       		.uleb128 0x3
 1421 00d3 08       		.uleb128 0x8
 1422 00d4 3A       		.uleb128 0x3a
 1423 00d5 0B       		.uleb128 0xb
 1424 00d6 3B       		.uleb128 0x3b
 1425 00d7 0B       		.uleb128 0xb
 1426 00d8 49       		.uleb128 0x49
 1427 00d9 13       		.uleb128 0x13
 1428 00da 02       		.uleb128 0x2
 1429 00db 0A       		.uleb128 0xa
 1430 00dc 00       		.byte	0
 1431 00dd 00       		.byte	0
 1432 00de 0F       		.uleb128 0xf
ARM GAS  C:\Users\ALEXAN~1\AppData\Local\Temp\ccdQChDh.s 			page 29


 1433 00df 34       		.uleb128 0x34
 1434 00e0 00       		.byte	0
 1435 00e1 03       		.uleb128 0x3
 1436 00e2 08       		.uleb128 0x8
 1437 00e3 3A       		.uleb128 0x3a
 1438 00e4 0B       		.uleb128 0xb
 1439 00e5 3B       		.uleb128 0x3b
 1440 00e6 0B       		.uleb128 0xb
 1441 00e7 49       		.uleb128 0x49
 1442 00e8 13       		.uleb128 0x13
 1443 00e9 02       		.uleb128 0x2
 1444 00ea 0A       		.uleb128 0xa
 1445 00eb 00       		.byte	0
 1446 00ec 00       		.byte	0
 1447 00ed 10       		.uleb128 0x10
 1448 00ee 21       		.uleb128 0x21
 1449 00ef 00       		.byte	0
 1450 00f0 49       		.uleb128 0x49
 1451 00f1 13       		.uleb128 0x13
 1452 00f2 2F       		.uleb128 0x2f
 1453 00f3 0A       		.uleb128 0xa
 1454 00f4 00       		.byte	0
 1455 00f5 00       		.byte	0
 1456 00f6 11       		.uleb128 0x11
 1457 00f7 2E       		.uleb128 0x2e
 1458 00f8 01       		.byte	0x1
 1459 00f9 3F       		.uleb128 0x3f
 1460 00fa 0C       		.uleb128 0xc
 1461 00fb 03       		.uleb128 0x3
 1462 00fc 0E       		.uleb128 0xe
 1463 00fd 3A       		.uleb128 0x3a
 1464 00fe 0B       		.uleb128 0xb
 1465 00ff 3B       		.uleb128 0x3b
 1466 0100 0B       		.uleb128 0xb
 1467 0101 27       		.uleb128 0x27
 1468 0102 0C       		.uleb128 0xc
 1469 0103 49       		.uleb128 0x49
 1470 0104 13       		.uleb128 0x13
 1471 0105 11       		.uleb128 0x11
 1472 0106 01       		.uleb128 0x1
 1473 0107 12       		.uleb128 0x12
 1474 0108 01       		.uleb128 0x1
 1475 0109 40       		.uleb128 0x40
 1476 010a 06       		.uleb128 0x6
 1477 010b 9742     		.uleb128 0x2117
 1478 010d 0C       		.uleb128 0xc
 1479 010e 01       		.uleb128 0x1
 1480 010f 13       		.uleb128 0x13
 1481 0110 00       		.byte	0
 1482 0111 00       		.byte	0
 1483 0112 12       		.uleb128 0x12
 1484 0113 2E       		.uleb128 0x2e
 1485 0114 01       		.byte	0x1
 1486 0115 3F       		.uleb128 0x3f
 1487 0116 0C       		.uleb128 0xc
 1488 0117 03       		.uleb128 0x3
 1489 0118 0E       		.uleb128 0xe
ARM GAS  C:\Users\ALEXAN~1\AppData\Local\Temp\ccdQChDh.s 			page 30


 1490 0119 3A       		.uleb128 0x3a
 1491 011a 0B       		.uleb128 0xb
 1492 011b 3B       		.uleb128 0x3b
 1493 011c 0B       		.uleb128 0xb
 1494 011d 11       		.uleb128 0x11
 1495 011e 01       		.uleb128 0x1
 1496 011f 12       		.uleb128 0x12
 1497 0120 01       		.uleb128 0x1
 1498 0121 40       		.uleb128 0x40
 1499 0122 06       		.uleb128 0x6
 1500 0123 9742     		.uleb128 0x2117
 1501 0125 0C       		.uleb128 0xc
 1502 0126 01       		.uleb128 0x1
 1503 0127 13       		.uleb128 0x13
 1504 0128 00       		.byte	0
 1505 0129 00       		.byte	0
 1506 012a 13       		.uleb128 0x13
 1507 012b 21       		.uleb128 0x21
 1508 012c 00       		.byte	0
 1509 012d 49       		.uleb128 0x49
 1510 012e 13       		.uleb128 0x13
 1511 012f 2F       		.uleb128 0x2f
 1512 0130 05       		.uleb128 0x5
 1513 0131 00       		.byte	0
 1514 0132 00       		.byte	0
 1515 0133 14       		.uleb128 0x14
 1516 0134 34       		.uleb128 0x34
 1517 0135 00       		.byte	0
 1518 0136 03       		.uleb128 0x3
 1519 0137 0E       		.uleb128 0xe
 1520 0138 3A       		.uleb128 0x3a
 1521 0139 0B       		.uleb128 0xb
 1522 013a 3B       		.uleb128 0x3b
 1523 013b 0B       		.uleb128 0xb
 1524 013c 49       		.uleb128 0x49
 1525 013d 13       		.uleb128 0x13
 1526 013e 3F       		.uleb128 0x3f
 1527 013f 0C       		.uleb128 0xc
 1528 0140 02       		.uleb128 0x2
 1529 0141 0A       		.uleb128 0xa
 1530 0142 00       		.byte	0
 1531 0143 00       		.byte	0
 1532 0144 00       		.byte	0
 1533              		.section	.debug_loc,"",%progbits
 1534              	.Ldebug_loc0:
 1535              	.LLST0:
 1536 0000 00000000 		.4byte	.LFB33
 1537 0004 02000000 		.4byte	.LCFI0
 1538 0008 0200     		.2byte	0x2
 1539 000a 7D       		.byte	0x7d
 1540 000b 00       		.sleb128 0
 1541 000c 02000000 		.4byte	.LCFI0
 1542 0010 04000000 		.4byte	.LCFI1
 1543 0014 0200     		.2byte	0x2
 1544 0016 7D       		.byte	0x7d
 1545 0017 08       		.sleb128 8
 1546 0018 04000000 		.4byte	.LCFI1
ARM GAS  C:\Users\ALEXAN~1\AppData\Local\Temp\ccdQChDh.s 			page 31


 1547 001c 14000000 		.4byte	.LFE33
 1548 0020 0200     		.2byte	0x2
 1549 0022 77       		.byte	0x77
 1550 0023 08       		.sleb128 8
 1551 0024 00000000 		.4byte	0
 1552 0028 00000000 		.4byte	0
 1553              	.LLST1:
 1554 002c 00000000 		.4byte	.LFB34
 1555 0030 02000000 		.4byte	.LCFI2
 1556 0034 0200     		.2byte	0x2
 1557 0036 7D       		.byte	0x7d
 1558 0037 00       		.sleb128 0
 1559 0038 02000000 		.4byte	.LCFI2
 1560 003c 04000000 		.4byte	.LCFI3
 1561 0040 0200     		.2byte	0x2
 1562 0042 7D       		.byte	0x7d
 1563 0043 08       		.sleb128 8
 1564 0044 04000000 		.4byte	.LCFI3
 1565 0048 14000000 		.4byte	.LFE34
 1566 004c 0200     		.2byte	0x2
 1567 004e 77       		.byte	0x77
 1568 004f 08       		.sleb128 8
 1569 0050 00000000 		.4byte	0
 1570 0054 00000000 		.4byte	0
 1571              	.LLST2:
 1572 0058 00000000 		.4byte	.LFB35
 1573 005c 02000000 		.4byte	.LCFI4
 1574 0060 0200     		.2byte	0x2
 1575 0062 7D       		.byte	0x7d
 1576 0063 00       		.sleb128 0
 1577 0064 02000000 		.4byte	.LCFI4
 1578 0068 04000000 		.4byte	.LCFI5
 1579 006c 0200     		.2byte	0x2
 1580 006e 7D       		.byte	0x7d
 1581 006f 08       		.sleb128 8
 1582 0070 04000000 		.4byte	.LCFI5
 1583 0074 14000000 		.4byte	.LFE35
 1584 0078 0200     		.2byte	0x2
 1585 007a 77       		.byte	0x77
 1586 007b 08       		.sleb128 8
 1587 007c 00000000 		.4byte	0
 1588 0080 00000000 		.4byte	0
 1589              	.LLST3:
 1590 0084 00000000 		.4byte	.LFB36
 1591 0088 02000000 		.4byte	.LCFI6
 1592 008c 0200     		.2byte	0x2
 1593 008e 7D       		.byte	0x7d
 1594 008f 00       		.sleb128 0
 1595 0090 02000000 		.4byte	.LCFI6
 1596 0094 04000000 		.4byte	.LCFI7
 1597 0098 0200     		.2byte	0x2
 1598 009a 7D       		.byte	0x7d
 1599 009b 08       		.sleb128 8
 1600 009c 04000000 		.4byte	.LCFI7
 1601 00a0 06000000 		.4byte	.LCFI8
 1602 00a4 0200     		.2byte	0x2
 1603 00a6 7D       		.byte	0x7d
ARM GAS  C:\Users\ALEXAN~1\AppData\Local\Temp\ccdQChDh.s 			page 32


 1604 00a7 20       		.sleb128 32
 1605 00a8 06000000 		.4byte	.LCFI8
 1606 00ac 26000000 		.4byte	.LFE36
 1607 00b0 0200     		.2byte	0x2
 1608 00b2 77       		.byte	0x77
 1609 00b3 20       		.sleb128 32
 1610 00b4 00000000 		.4byte	0
 1611 00b8 00000000 		.4byte	0
 1612              	.LLST4:
 1613 00bc 00000000 		.4byte	.LFB37
 1614 00c0 02000000 		.4byte	.LCFI9
 1615 00c4 0200     		.2byte	0x2
 1616 00c6 7D       		.byte	0x7d
 1617 00c7 00       		.sleb128 0
 1618 00c8 02000000 		.4byte	.LCFI9
 1619 00cc 04000000 		.4byte	.LCFI10
 1620 00d0 0200     		.2byte	0x2
 1621 00d2 7D       		.byte	0x7d
 1622 00d3 08       		.sleb128 8
 1623 00d4 04000000 		.4byte	.LCFI10
 1624 00d8 06000000 		.4byte	.LCFI11
 1625 00dc 0200     		.2byte	0x2
 1626 00de 7D       		.byte	0x7d
 1627 00df 10       		.sleb128 16
 1628 00e0 06000000 		.4byte	.LCFI11
 1629 00e4 26000000 		.4byte	.LFE37
 1630 00e8 0200     		.2byte	0x2
 1631 00ea 77       		.byte	0x77
 1632 00eb 10       		.sleb128 16
 1633 00ec 00000000 		.4byte	0
 1634 00f0 00000000 		.4byte	0
 1635              	.LLST5:
 1636 00f4 00000000 		.4byte	.LFB38
 1637 00f8 02000000 		.4byte	.LCFI12
 1638 00fc 0200     		.2byte	0x2
 1639 00fe 7D       		.byte	0x7d
 1640 00ff 00       		.sleb128 0
 1641 0100 02000000 		.4byte	.LCFI12
 1642 0104 04000000 		.4byte	.LCFI13
 1643 0108 0200     		.2byte	0x2
 1644 010a 7D       		.byte	0x7d
 1645 010b 0C       		.sleb128 12
 1646 010c 04000000 		.4byte	.LCFI13
 1647 0110 06000000 		.4byte	.LCFI14
 1648 0114 0200     		.2byte	0x2
 1649 0116 7D       		.byte	0x7d
 1650 0117 20       		.sleb128 32
 1651 0118 06000000 		.4byte	.LCFI14
 1652 011c E4000000 		.4byte	.LFE38
 1653 0120 0200     		.2byte	0x2
 1654 0122 77       		.byte	0x77
 1655 0123 20       		.sleb128 32
 1656 0124 00000000 		.4byte	0
 1657 0128 00000000 		.4byte	0
 1658              	.LLST6:
 1659 012c 00000000 		.4byte	.LFB39
 1660 0130 02000000 		.4byte	.LCFI15
ARM GAS  C:\Users\ALEXAN~1\AppData\Local\Temp\ccdQChDh.s 			page 33


 1661 0134 0200     		.2byte	0x2
 1662 0136 7D       		.byte	0x7d
 1663 0137 00       		.sleb128 0
 1664 0138 02000000 		.4byte	.LCFI15
 1665 013c 06000000 		.4byte	.LCFI16
 1666 0140 0200     		.2byte	0x2
 1667 0142 7D       		.byte	0x7d
 1668 0143 14       		.sleb128 20
 1669 0144 06000000 		.4byte	.LCFI16
 1670 0148 08000000 		.4byte	.LCFI17
 1671 014c 0200     		.2byte	0x2
 1672 014e 7D       		.byte	0x7d
 1673 014f 18       		.sleb128 24
 1674 0150 08000000 		.4byte	.LCFI17
 1675 0154 0A000000 		.4byte	.LCFI18
 1676 0158 0200     		.2byte	0x2
 1677 015a 7D       		.byte	0x7d
 1678 015b 38       		.sleb128 56
 1679 015c 0A000000 		.4byte	.LCFI18
 1680 0160 78010000 		.4byte	.LFE39
 1681 0164 0200     		.2byte	0x2
 1682 0166 77       		.byte	0x77
 1683 0167 38       		.sleb128 56
 1684 0168 00000000 		.4byte	0
 1685 016c 00000000 		.4byte	0
 1686              	.LLST7:
 1687 0170 00000000 		.4byte	.LFB40
 1688 0174 02000000 		.4byte	.LCFI19
 1689 0178 0200     		.2byte	0x2
 1690 017a 7D       		.byte	0x7d
 1691 017b 00       		.sleb128 0
 1692 017c 02000000 		.4byte	.LCFI19
 1693 0180 04000000 		.4byte	.LCFI20
 1694 0184 0200     		.2byte	0x2
 1695 0186 7D       		.byte	0x7d
 1696 0187 08       		.sleb128 8
 1697 0188 04000000 		.4byte	.LCFI20
 1698 018c 06000000 		.4byte	.LCFI21
 1699 0190 0200     		.2byte	0x2
 1700 0192 7D       		.byte	0x7d
 1701 0193 18       		.sleb128 24
 1702 0194 06000000 		.4byte	.LCFI21
 1703 0198 54000000 		.4byte	.LFE40
 1704 019c 0200     		.2byte	0x2
 1705 019e 77       		.byte	0x77
 1706 019f 18       		.sleb128 24
 1707 01a0 00000000 		.4byte	0
 1708 01a4 00000000 		.4byte	0
 1709              	.LLST8:
 1710 01a8 00000000 		.4byte	.LFB41
 1711 01ac 02000000 		.4byte	.LCFI22
 1712 01b0 0200     		.2byte	0x2
 1713 01b2 7D       		.byte	0x7d
 1714 01b3 00       		.sleb128 0
 1715 01b4 02000000 		.4byte	.LCFI22
 1716 01b8 04000000 		.4byte	.LCFI23
 1717 01bc 0200     		.2byte	0x2
ARM GAS  C:\Users\ALEXAN~1\AppData\Local\Temp\ccdQChDh.s 			page 34


 1718 01be 7D       		.byte	0x7d
 1719 01bf 08       		.sleb128 8
 1720 01c0 04000000 		.4byte	.LCFI23
 1721 01c4 06000000 		.4byte	.LCFI24
 1722 01c8 0200     		.2byte	0x2
 1723 01ca 7D       		.byte	0x7d
 1724 01cb 10       		.sleb128 16
 1725 01cc 06000000 		.4byte	.LCFI24
 1726 01d0 34000000 		.4byte	.LFE41
 1727 01d4 0200     		.2byte	0x2
 1728 01d6 77       		.byte	0x77
 1729 01d7 10       		.sleb128 16
 1730 01d8 00000000 		.4byte	0
 1731 01dc 00000000 		.4byte	0
 1732              		.section	.debug_aranges,"",%progbits
 1733 0000 5C000000 		.4byte	0x5c
 1734 0004 0200     		.2byte	0x2
 1735 0006 00000000 		.4byte	.Ldebug_info0
 1736 000a 04       		.byte	0x4
 1737 000b 00       		.byte	0
 1738 000c 0000     		.2byte	0
 1739 000e 0000     		.2byte	0
 1740 0010 00000000 		.4byte	.LFB33
 1741 0014 14000000 		.4byte	.LFE33-.LFB33
 1742 0018 00000000 		.4byte	.LFB34
 1743 001c 14000000 		.4byte	.LFE34-.LFB34
 1744 0020 00000000 		.4byte	.LFB35
 1745 0024 14000000 		.4byte	.LFE35-.LFB35
 1746 0028 00000000 		.4byte	.LFB36
 1747 002c 26000000 		.4byte	.LFE36-.LFB36
 1748 0030 00000000 		.4byte	.LFB37
 1749 0034 26000000 		.4byte	.LFE37-.LFB37
 1750 0038 00000000 		.4byte	.LFB38
 1751 003c E4000000 		.4byte	.LFE38-.LFB38
 1752 0040 00000000 		.4byte	.LFB39
 1753 0044 78010000 		.4byte	.LFE39-.LFB39
 1754 0048 00000000 		.4byte	.LFB40
 1755 004c 54000000 		.4byte	.LFE40-.LFB40
 1756 0050 00000000 		.4byte	.LFB41
 1757 0054 34000000 		.4byte	.LFE41-.LFB41
 1758 0058 00000000 		.4byte	0
 1759 005c 00000000 		.4byte	0
 1760              		.section	.debug_ranges,"",%progbits
 1761              	.Ldebug_ranges0:
 1762 0000 00000000 		.4byte	.LFB33
 1763 0004 14000000 		.4byte	.LFE33
 1764 0008 00000000 		.4byte	.LFB34
 1765 000c 14000000 		.4byte	.LFE34
 1766 0010 00000000 		.4byte	.LFB35
 1767 0014 14000000 		.4byte	.LFE35
 1768 0018 00000000 		.4byte	.LFB36
 1769 001c 26000000 		.4byte	.LFE36
 1770 0020 00000000 		.4byte	.LFB37
 1771 0024 26000000 		.4byte	.LFE37
 1772 0028 00000000 		.4byte	.LFB38
 1773 002c E4000000 		.4byte	.LFE38
 1774 0030 00000000 		.4byte	.LFB39
ARM GAS  C:\Users\ALEXAN~1\AppData\Local\Temp\ccdQChDh.s 			page 35


 1775 0034 78010000 		.4byte	.LFE39
 1776 0038 00000000 		.4byte	.LFB40
 1777 003c 54000000 		.4byte	.LFE40
 1778 0040 00000000 		.4byte	.LFB41
 1779 0044 34000000 		.4byte	.LFE41
 1780 0048 00000000 		.4byte	0
 1781 004c 00000000 		.4byte	0
 1782              		.section	.debug_line,"",%progbits
 1783              	.Ldebug_line0:
 1784 0000 64010000 		.section	.debug_str,"MS",%progbits,1
 1784      02004400 
 1784      00000201 
 1784      FB0E0D00 
 1784      01010101 
 1785              	.LASF34:
 1786 0000 67706773 		.ascii	"gpgsv\000"
 1786      7600
 1787              	.LASF15:
 1788 0006 6765744E 		.ascii	"getNumberOfSate\000"
 1788      756D6265 
 1788      724F6653 
 1788      61746500 
 1789              	.LASF4:
 1790 0016 6C6F6E67 		.ascii	"long int\000"
 1790      20696E74 
 1790      00
 1791              	.LASF27:
 1792 001f 636F7272 		.ascii	"correct\000"
 1792      65637400 
 1793              	.LASF37:
 1794 0027 74696D65 		.ascii	"time_\000"
 1794      5F00
 1795              	.LASF39:
 1796 002d 2E5C6770 		.ascii	".\\gps.c\000"
 1796      732E6300 
 1797              	.LASF14:
 1798 0035 47657447 		.ascii	"GetGPSTime\000"
 1798      50535469 
 1798      6D6500
 1799              	.LASF30:
 1800 0040 67707342 		.ascii	"gpsBuffer\000"
 1800      75666665 
 1800      7200
 1801              	.LASF9:
 1802 004a 666C6F61 		.ascii	"float\000"
 1802      7400
 1803              	.LASF31:
 1804 0050 67707342 		.ascii	"gpsBufferPointer\000"
 1804      75666665 
 1804      72506F69 
 1804      6E746572 
 1804      00
 1805              	.LASF1:
 1806 0061 756E7369 		.ascii	"unsigned char\000"
 1806      676E6564 
 1806      20636861 
 1806      7200
ARM GAS  C:\Users\ALEXAN~1\AppData\Local\Temp\ccdQChDh.s 			page 36


 1807              	.LASF22:
 1808 006f 72784861 		.ascii	"rxHasData\000"
 1808      73446174 
 1808      6100
 1809              	.LASF5:
 1810 0079 6C6F6E67 		.ascii	"long unsigned int\000"
 1810      20756E73 
 1810      69676E65 
 1810      6420696E 
 1810      7400
 1811              	.LASF3:
 1812 008b 73686F72 		.ascii	"short unsigned int\000"
 1812      7420756E 
 1812      7369676E 
 1812      65642069 
 1812      6E7400
 1813              	.LASF18:
 1814 009e 67657447 		.ascii	"getGPSUartSpeed\000"
 1814      50535561 
 1814      72745370 
 1814      65656400 
 1815              	.LASF23:
 1816 00ae 72784461 		.ascii	"rxData\000"
 1816      746100
 1817              	.LASF16:
 1818 00b5 67657447 		.ascii	"getGPSSpeed\000"
 1818      50535370 
 1818      65656400 
 1819              	.LASF10:
 1820 00c1 646F7562 		.ascii	"double\000"
 1820      6C6500
 1821              	.LASF13:
 1822 00c8 6C6F6E67 		.ascii	"long double\000"
 1822      20646F75 
 1822      626C6500 
 1823              	.LASF17:
 1824 00d4 67657447 		.ascii	"getGPSUartNumberOfSate\000"
 1824      50535561 
 1824      72744E75 
 1824      6D626572 
 1824      4F665361 
 1825              	.LASF25:
 1826 00eb 7061636B 		.ascii	"packet\000"
 1826      657400
 1827              	.LASF8:
 1828 00f2 756E7369 		.ascii	"unsigned int\000"
 1828      676E6564 
 1828      20696E74 
 1828      00
 1829              	.LASF7:
 1830 00ff 6C6F6E67 		.ascii	"long long unsigned int\000"
 1830      206C6F6E 
 1830      6720756E 
 1830      7369676E 
 1830      65642069 
 1831              	.LASF33:
 1832 0116 67706767 		.ascii	"gpgga\000"
ARM GAS  C:\Users\ALEXAN~1\AppData\Local\Temp\ccdQChDh.s 			page 37


 1832      6100
 1833              	.LASF40:
 1834 011c 433A5C70 		.ascii	"C:\\psoc\\i2c_test\\i2ctest.cydsn\000"
 1834      736F635C 
 1834      6932635F 
 1834      74657374 
 1834      5C693263 
 1835              	.LASF20:
 1836 013b 636F6D70 		.ascii	"completedGGA\000"
 1836      6C657465 
 1836      64474741 
 1836      00
 1837              	.LASF42:
 1838 0148 636F6D70 		.ascii	"compareGPSCMD\000"
 1838      61726547 
 1838      5053434D 
 1838      4400
 1839              	.LASF12:
 1840 0156 73697A65 		.ascii	"sizetype\000"
 1840      74797065 
 1840      00
 1841              	.LASF32:
 1842 015f 67707674 		.ascii	"gpvtg\000"
 1842      6700
 1843              	.LASF6:
 1844 0165 6C6F6E67 		.ascii	"long long int\000"
 1844      206C6F6E 
 1844      6720696E 
 1844      7400
 1845              	.LASF29:
 1846 0173 72657365 		.ascii	"resetGPSBuffer\000"
 1846      74475053 
 1846      42756666 
 1846      657200
 1847              	.LASF28:
 1848 0182 72656164 		.ascii	"readGPSData\000"
 1848      47505344 
 1848      61746100 
 1849              	.LASF11:
 1850 018e 63686172 		.ascii	"char\000"
 1850      00
 1851              	.LASF36:
 1852 0193 6E756D62 		.ascii	"numberOfSate_\000"
 1852      65724F66 
 1852      53617465 
 1852      5F00
 1853              	.LASF35:
 1854 01a1 73706565 		.ascii	"speed_\000"
 1854      645F00
 1855              	.LASF21:
 1856 01a8 636F6D70 		.ascii	"completedVTG\000"
 1856      6C657465 
 1856      64565447 
 1856      00
 1857              	.LASF2:
 1858 01b5 73686F72 		.ascii	"short int\000"
 1858      7420696E 
ARM GAS  C:\Users\ALEXAN~1\AppData\Local\Temp\ccdQChDh.s 			page 38


 1858      7400
 1859              	.LASF41:
 1860 01bf 75696E74 		.ascii	"uint8\000"
 1860      3800
 1861              	.LASF38:
 1862 01c5 474E5520 		.ascii	"GNU C 4.7.3 20130312 (release) [ARM/embedded-4_7-br"
 1862      4320342E 
 1862      372E3320 
 1862      32303133 
 1862      30333132 
 1863 01f8 616E6368 		.ascii	"anch revision 196615]\000"
 1863      20726576 
 1863      6973696F 
 1863      6E203139 
 1863      36363135 
 1864              	.LASF26:
 1865 020e 746F6B65 		.ascii	"token\000"
 1865      6E00
 1866              	.LASF19:
 1867 0214 72657475 		.ascii	"returnSpeed\000"
 1867      726E5370 
 1867      65656400 
 1868              	.LASF0:
 1869 0220 7369676E 		.ascii	"signed char\000"
 1869      65642063 
 1869      68617200 
 1870              	.LASF24:
 1871 022c 68616E64 		.ascii	"handleGPSData\000"
 1871      6C654750 
 1871      53446174 
 1871      6100
 1872              		.ident	"GCC: (GNU Tools for ARM Embedded Processors) 4.7.3 20130312 (release) [ARM/embedded-4_7-br
