ARM GAS  C:\Users\ALEXAN~1\AppData\Local\Temp\ccdQChDh.s 			page 1


   1              		.cpu cortex-m0
   2              		.fpu softvfp
   3              		.eabi_attribute 20, 1
   4              		.eabi_attribute 21, 1
   5              		.eabi_attribute 23, 3
   6              		.eabi_attribute 24, 1
   7              		.eabi_attribute 25, 1
   8              		.eabi_attribute 26, 1
   9              		.eabi_attribute 30, 6
  10              		.eabi_attribute 34, 0
  11              		.eabi_attribute 18, 4
  12              		.code	16
  13              		.file	"gps.c"
  14              		.text
  15              	.Ltext0:
  16              		.cfi_sections	.debug_frame
  17              		.global	gpsBuffer
  18              		.bss
  19              		.align	2
  20              		.type	gpsBuffer, %object
  21              		.size	gpsBuffer, 300
  22              	gpsBuffer:
  23 0000 00000000 		.space	300
  23      00000000 
  23      00000000 
  23      00000000 
  23      00000000 
  24              		.global	gpsBufferPointer
  25              		.align	2
  26              		.type	gpsBufferPointer, %object
  27              		.size	gpsBufferPointer, 4
  28              	gpsBufferPointer:
  29 012c 00000000 		.space	4
  30              		.global	gpvtg
  31              		.section	.rodata
  32              		.align	2
  33              	.LC0:
  34 0000 24475056 		.ascii	"$GPVTG\000"
  34      544700
  35              		.data
  36              		.align	2
  37              		.type	gpvtg, %object
  38              		.size	gpvtg, 4
  39              	gpvtg:
  40 0000 00000000 		.word	.LC0
  41              		.global	gpgga
  42              		.section	.rodata
  43 0007 00       		.align	2
  44              	.LC1:
  45 0008 24475047 		.ascii	"$GPGGA\000"
  45      474100
  46              		.data
  47              		.align	2
  48              		.type	gpgga, %object
  49              		.size	gpgga, 4
  50              	gpgga:
  51 0004 08000000 		.word	.LC1
ARM GAS  C:\Users\ALEXAN~1\AppData\Local\Temp\ccdQChDh.s 			page 2


  52              		.global	gpgsv
  53              		.section	.rodata
  54 000f 00       		.align	2
  55              	.LC2:
  56 0010 24475047 		.ascii	"$GPGSV\000"
  56      535600
  57              		.data
  58              		.align	2
  59              		.type	gpgsv, %object
  60              		.size	gpgsv, 4
  61              	gpgsv:
  62 0008 10000000 		.word	.LC2
  63              		.global	speed_
  64              		.bss
  65              		.align	2
  66              		.type	speed_, %object
  67              		.size	speed_, 4
  68              	speed_:
  69 0130 00000000 		.space	4
  70              		.global	numberOfSate_
  71              		.align	2
  72              		.type	numberOfSate_, %object
  73              		.size	numberOfSate_, 4
  74              	numberOfSate_:
  75 0134 00000000 		.space	4
  76              		.global	time_
  77              		.align	2
  78              		.type	time_, %object
  79              		.size	time_, 4
  80              	time_:
  81 0138 00000000 		.space	4
  82              		.section	.text.GetGPSTime,"ax",%progbits
  83              		.align	2
  84              		.global	GetGPSTime
  85              		.code	16
  86              		.thumb_func
  87              		.type	GetGPSTime, %function
  88              	GetGPSTime:
  89              	.LFB33:
  90              		.file 1 ".\\gps.c"
   1:.\gps.c       **** #include <project.h>
   2:.\gps.c       **** #include <string.h>
   3:.\gps.c       **** #include <stdio.h>
   4:.\gps.c       **** #include <stdlib.h>
   5:.\gps.c       **** #include <math.h>
   6:.\gps.c       **** #include "gps.h"
   7:.\gps.c       **** #include "util.h"
   8:.\gps.c       **** 
   9:.\gps.c       **** // Set GPS to 10 Hz
  10:.\gps.c       **** //    UART_GPS_PutString("$PMTK220,200*2C");
  11:.\gps.c       **** //    UART_GPS_PutChar(13);
  12:.\gps.c       **** //    UART_GPS_PutChar(10);
  13:.\gps.c       **** //    UART_GPS_PutString("$PMTK300,200,0,0,0,0*2F");
  14:.\gps.c       **** //    UART_GPS_PutChar(13);
  15:.\gps.c       **** //    UART_GPS_PutChar(10);
  16:.\gps.c       **** 
  17:.\gps.c       **** /********** GPS  ***************/
ARM GAS  C:\Users\ALEXAN~1\AppData\Local\Temp\ccdQChDh.s 			page 3


  18:.\gps.c       **** 
  19:.\gps.c       **** char gpsBuffer[300] = "";
  20:.\gps.c       **** int gpsBufferPointer = 0;
  21:.\gps.c       **** char* gpvtg = "$GPVTG";
  22:.\gps.c       **** char* gpgga = "$GPGGA";
  23:.\gps.c       **** char* gpgsv = "$GPGSV";
  24:.\gps.c       **** 
  25:.\gps.c       **** int speed_ = 0;
  26:.\gps.c       **** int numberOfSate_ = 0;
  27:.\gps.c       **** int time_ = 0;
  28:.\gps.c       **** 
  29:.\gps.c       **** /********** /GPS  ***************/
  30:.\gps.c       **** 
  31:.\gps.c       **** int GetGPSTime() {
  91              		.loc 1 31 0
  92              		.cfi_startproc
  93 0000 80B5     		push	{r7, lr}
  94              	.LCFI0:
  95              		.cfi_def_cfa_offset 8
  96              		.cfi_offset 7, -8
  97              		.cfi_offset 14, -4
  98 0002 00AF     		add	r7, sp, #0
  99              	.LCFI1:
 100              		.cfi_def_cfa_register 7
  32:.\gps.c       ****     return time_;
 101              		.loc 1 32 0
 102 0004 024B     		ldr	r3, .L3
 103 0006 1B68     		ldr	r3, [r3]
  33:.\gps.c       **** }
 104              		.loc 1 33 0
 105 0008 181C     		mov	r0, r3
 106 000a BD46     		mov	sp, r7
 107              		@ sp needed for prologue
 108 000c 80BD     		pop	{r7, pc}
 109              	.L4:
 110 000e C046     		.align	2
 111              	.L3:
 112 0010 00000000 		.word	time_
 113              		.cfi_endproc
 114              	.LFE33:
 115              		.size	GetGPSTime, .-GetGPSTime
 116              		.section	.text.getNumberOfSate,"ax",%progbits
 117              		.align	2
 118              		.global	getNumberOfSate
 119              		.code	16
 120              		.thumb_func
 121              		.type	getNumberOfSate, %function
 122              	getNumberOfSate:
 123              	.LFB34:
  34:.\gps.c       **** 
  35:.\gps.c       **** int getNumberOfSate() {
 124              		.loc 1 35 0
 125              		.cfi_startproc
 126 0000 80B5     		push	{r7, lr}
 127              	.LCFI2:
 128              		.cfi_def_cfa_offset 8
 129              		.cfi_offset 7, -8
ARM GAS  C:\Users\ALEXAN~1\AppData\Local\Temp\ccdQChDh.s 			page 4


 130              		.cfi_offset 14, -4
 131 0002 00AF     		add	r7, sp, #0
 132              	.LCFI3:
 133              		.cfi_def_cfa_register 7
  36:.\gps.c       ****     return numberOfSate_;
 134              		.loc 1 36 0
 135 0004 024B     		ldr	r3, .L7
 136 0006 1B68     		ldr	r3, [r3]
  37:.\gps.c       **** }
 137              		.loc 1 37 0
 138 0008 181C     		mov	r0, r3
 139 000a BD46     		mov	sp, r7
 140              		@ sp needed for prologue
 141 000c 80BD     		pop	{r7, pc}
 142              	.L8:
 143 000e C046     		.align	2
 144              	.L7:
 145 0010 00000000 		.word	numberOfSate_
 146              		.cfi_endproc
 147              	.LFE34:
 148              		.size	getNumberOfSate, .-getNumberOfSate
 149              		.section	.text.getGPSSpeed,"ax",%progbits
 150              		.align	2
 151              		.global	getGPSSpeed
 152              		.code	16
 153              		.thumb_func
 154              		.type	getGPSSpeed, %function
 155              	getGPSSpeed:
 156              	.LFB35:
  38:.\gps.c       **** int getGPSSpeed() {
 157              		.loc 1 38 0
 158              		.cfi_startproc
 159 0000 80B5     		push	{r7, lr}
 160              	.LCFI4:
 161              		.cfi_def_cfa_offset 8
 162              		.cfi_offset 7, -8
 163              		.cfi_offset 14, -4
 164 0002 00AF     		add	r7, sp, #0
 165              	.LCFI5:
 166              		.cfi_def_cfa_register 7
  39:.\gps.c       ****     return speed_;
 167              		.loc 1 39 0
 168 0004 024B     		ldr	r3, .L11
 169 0006 1B68     		ldr	r3, [r3]
  40:.\gps.c       **** }
 170              		.loc 1 40 0
 171 0008 181C     		mov	r0, r3
 172 000a BD46     		mov	sp, r7
 173              		@ sp needed for prologue
 174 000c 80BD     		pop	{r7, pc}
 175              	.L12:
 176 000e C046     		.align	2
 177              	.L11:
 178 0010 00000000 		.word	speed_
 179              		.cfi_endproc
 180              	.LFE35:
 181              		.size	getGPSSpeed, .-getGPSSpeed
ARM GAS  C:\Users\ALEXAN~1\AppData\Local\Temp\ccdQChDh.s 			page 5


 182              		.section	.text.getGPSUartNumberOfSate,"ax",%progbits
 183              		.align	2
 184              		.global	getGPSUartNumberOfSate
 185              		.code	16
 186              		.thumb_func
 187              		.type	getGPSUartNumberOfSate, %function
 188              	getGPSUartNumberOfSate:
 189              	.LFB36:
  41:.\gps.c       **** char* getGPSUartNumberOfSate() {
 190              		.loc 1 41 0
 191              		.cfi_startproc
 192 0000 80B5     		push	{r7, lr}
 193              	.LCFI6:
 194              		.cfi_def_cfa_offset 8
 195              		.cfi_offset 7, -8
 196              		.cfi_offset 14, -4
 197 0002 86B0     		sub	sp, sp, #24
 198              	.LCFI7:
 199              		.cfi_def_cfa_offset 32
 200 0004 00AF     		add	r7, sp, #0
 201              	.LCFI8:
 202              		.cfi_def_cfa_register 7
  42:.\gps.c       ****     char returnSpeed[22];
  43:.\gps.c       ****     intToStr(getNumberOfSate(), *returnSpeed, 2);
 203              		.loc 1 43 0
 204 0006 FFF7FEFF 		bl	getNumberOfSate
 205 000a 021C     		mov	r2, r0
 206 000c 3B1C     		mov	r3, r7
 207 000e 1B78     		ldrb	r3, [r3]
 208 0010 101C     		mov	r0, r2
 209 0012 191C     		mov	r1, r3
 210 0014 0222     		mov	r2, #2
 211 0016 FFF7FEFF 		bl	intToStr
  44:.\gps.c       ****     return *returnSpeed;
 212              		.loc 1 44 0
 213 001a 3B1C     		mov	r3, r7
 214 001c 1B78     		ldrb	r3, [r3]
  45:.\gps.c       **** }
 215              		.loc 1 45 0
 216 001e 181C     		mov	r0, r3
 217 0020 BD46     		mov	sp, r7
 218 0022 06B0     		add	sp, sp, #24
 219              		@ sp needed for prologue
 220 0024 80BD     		pop	{r7, pc}
 221              		.cfi_endproc
 222              	.LFE36:
 223              		.size	getGPSUartNumberOfSate, .-getGPSUartNumberOfSate
 224 0026 C046     		.section	.text.getGPSUartSpeed,"ax",%progbits
 225              		.align	2
 226              		.global	getGPSUartSpeed
 227              		.code	16
 228              		.thumb_func
 229              		.type	getGPSUartSpeed, %function
 230              	getGPSUartSpeed:
 231              	.LFB37:
  46:.\gps.c       **** char* getGPSUartSpeed() {
 232              		.loc 1 46 0
ARM GAS  C:\Users\ALEXAN~1\AppData\Local\Temp\ccdQChDh.s 			page 6


 233              		.cfi_startproc
 234 0000 80B5     		push	{r7, lr}
 235              	.LCFI9:
 236              		.cfi_def_cfa_offset 8
 237              		.cfi_offset 7, -8
 238              		.cfi_offset 14, -4
 239 0002 82B0     		sub	sp, sp, #8
 240              	.LCFI10:
 241              		.cfi_def_cfa_offset 16
 242 0004 00AF     		add	r7, sp, #0
 243              	.LCFI11:
 244              		.cfi_def_cfa_register 7
  47:.\gps.c       ****     char returnSpeed[4];
  48:.\gps.c       ****     intToStr(getGPSSpeed(), *returnSpeed, 4);
 245              		.loc 1 48 0
 246 0006 FFF7FEFF 		bl	getGPSSpeed
 247 000a 021C     		mov	r2, r0
 248 000c 3B1D     		add	r3, r7, #4
 249 000e 1B78     		ldrb	r3, [r3]
 250 0010 101C     		mov	r0, r2
 251 0012 191C     		mov	r1, r3
 252 0014 0422     		mov	r2, #4
 253 0016 FFF7FEFF 		bl	intToStr
  49:.\gps.c       ****     return *returnSpeed;
 254              		.loc 1 49 0
 255 001a 3B1D     		add	r3, r7, #4
 256 001c 1B78     		ldrb	r3, [r3]
  50:.\gps.c       **** }
 257              		.loc 1 50 0
 258 001e 181C     		mov	r0, r3
 259 0020 BD46     		mov	sp, r7
 260 0022 02B0     		add	sp, sp, #8
 261              		@ sp needed for prologue
 262 0024 80BD     		pop	{r7, pc}
 263              		.cfi_endproc
 264              	.LFE37:
 265              		.size	getGPSUartSpeed, .-getGPSUartSpeed
 266 0026 C046     		.section	.rodata
 267 0017 00       		.align	2
 268              	.LC9:
 269 0018 47504747 		.ascii	"GPGGA\000"
 269      4100
 270 001e 0000     		.align	2
 271              	.LC12:
 272 0020 47505654 		.ascii	"GPVTG\000"
 272      4700
 273 0026 0000     		.align	2
 274              	.LC15:
 275 0028 47505653 		.ascii	"GPVSG\000"
 275      4700
 276              		.section	.text.readGPSData,"ax",%progbits
 277              		.align	2
 278              		.global	readGPSData
 279              		.code	16
 280              		.thumb_func
 281              		.type	readGPSData, %function
 282              	readGPSData:
ARM GAS  C:\Users\ALEXAN~1\AppData\Local\Temp\ccdQChDh.s 			page 7


 283              	.LFB38:
  51:.\gps.c       **** 
  52:.\gps.c       **** void readGPSData() {
 284              		.loc 1 52 0
 285              		.cfi_startproc
 286 0000 90B5     		push	{r4, r7, lr}
 287              	.LCFI12:
 288              		.cfi_def_cfa_offset 12
 289              		.cfi_offset 4, -12
 290              		.cfi_offset 7, -8
 291              		.cfi_offset 14, -4
 292 0002 85B0     		sub	sp, sp, #20
 293              	.LCFI13:
 294              		.cfi_def_cfa_offset 32
 295 0004 00AF     		add	r7, sp, #0
 296              	.LCFI14:
 297              		.cfi_def_cfa_register 7
  53:.\gps.c       ****     int completedGGA = 0;
 298              		.loc 1 53 0
 299 0006 0023     		mov	r3, #0
 300 0008 BB60     		str	r3, [r7, #8]
  54:.\gps.c       ****     int completedVTG = 0;
 301              		.loc 1 54 0
 302 000a 0023     		mov	r3, #0
 303 000c FB60     		str	r3, [r7, #12]
  55:.\gps.c       ****     while(!completedVTG) {
 304              		.loc 1 55 0
 305 000e 52E0     		b	.L18
 306              	.L23:
 307              	.LBB2:
  56:.\gps.c       ****         uint8 rxHasData = UART_GPS_GetRxBufferSize();
 308              		.loc 1 56 0
 309 0010 FC1D     		add	r4, r7, #7
 310 0012 FFF7FEFF 		bl	UART_GPS_GetRxBufferSize
 311 0016 031C     		mov	r3, r0
 312 0018 2370     		strb	r3, [r4]
  57:.\gps.c       ****         
  58:.\gps.c       ****         if (rxHasData) {
 313              		.loc 1 58 0
 314 001a FB1D     		add	r3, r7, #7
 315 001c 1B78     		ldrb	r3, [r3]
 316 001e 002B     		cmp	r3, #0
 317 0020 49D0     		beq	.L18
 318              	.LBB3:
  59:.\gps.c       ****             char rxData = UART_GPS_ReadRxData();
 319              		.loc 1 59 0
 320 0022 BC1D     		add	r4, r7, #6
 321 0024 FFF7FEFF 		bl	UART_GPS_ReadRxData
 322 0028 031C     		mov	r3, r0
 323 002a 2370     		strb	r3, [r4]
  60:.\gps.c       **** 
  61:.\gps.c       ****             gpsBuffer[gpsBufferPointer] = rxData;
 324              		.loc 1 61 0
 325 002c 254B     		ldr	r3, .L24
 326 002e 1B68     		ldr	r3, [r3]
 327 0030 254A     		ldr	r2, .L24+4
 328 0032 B91D     		add	r1, r7, #6
ARM GAS  C:\Users\ALEXAN~1\AppData\Local\Temp\ccdQChDh.s 			page 8


 329 0034 0978     		ldrb	r1, [r1]
 330 0036 D154     		strb	r1, [r2, r3]
  62:.\gps.c       ****             gpsBufferPointer++;
 331              		.loc 1 62 0
 332 0038 224B     		ldr	r3, .L24
 333 003a 1B68     		ldr	r3, [r3]
 334 003c 5A1C     		add	r2, r3, #1
 335 003e 214B     		ldr	r3, .L24
 336 0040 1A60     		str	r2, [r3]
  63:.\gps.c       ****             
  64:.\gps.c       ****             if (rxData == 0x10) {
 337              		.loc 1 64 0
 338 0042 BB1D     		add	r3, r7, #6
 339 0044 1B78     		ldrb	r3, [r3]
 340 0046 102B     		cmp	r3, #16
 341 0048 04D1     		bne	.L19
  65:.\gps.c       ****                 gpsBufferPointer = 0;
 342              		.loc 1 65 0
 343 004a 1E4B     		ldr	r3, .L24
 344 004c 0022     		mov	r2, #0
 345 004e 1A60     		str	r2, [r3]
  66:.\gps.c       ****                 resetGPSBuffer();
 346              		.loc 1 66 0
 347 0050 FFF7FEFF 		bl	resetGPSBuffer
 348              	.L19:
  67:.\gps.c       ****             }
  68:.\gps.c       ****             //UART_PC_UartPutChar(rxData);
  69:.\gps.c       ****             // Data completed. Received a full gps packet.
  70:.\gps.c       ****             if (rxData == 13) {            
 349              		.loc 1 70 0
 350 0054 BB1D     		add	r3, r7, #6
 351 0056 1B78     		ldrb	r3, [r3]
 352 0058 0D2B     		cmp	r3, #13
 353 005a 2CD1     		bne	.L18
  71:.\gps.c       ****                 if (compareGPSCMD(gpgga)){
 354              		.loc 1 71 0
 355 005c 1B4B     		ldr	r3, .L24+8
 356 005e 1B68     		ldr	r3, [r3]
 357 0060 181C     		mov	r0, r3
 358 0062 FFF7FEFF 		bl	compareGPSCMD
 359 0066 031C     		mov	r3, r0
 360 0068 002B     		cmp	r3, #0
 361 006a 05D0     		beq	.L20
  72:.\gps.c       ****                     handleGPSData("GPGGA");
 362              		.loc 1 72 0
 363 006c 184B     		ldr	r3, .L24+12
 364 006e 181C     		mov	r0, r3
 365 0070 FFF7FEFF 		bl	handleGPSData
  73:.\gps.c       ****                     completedGGA = 1;
 366              		.loc 1 73 0
 367 0074 0123     		mov	r3, #1
 368 0076 BB60     		str	r3, [r7, #8]
 369              	.L20:
  74:.\gps.c       ****                 }
  75:.\gps.c       ****                 if (compareGPSCMD(gpvtg)){
 370              		.loc 1 75 0
 371 0078 164B     		ldr	r3, .L24+16
ARM GAS  C:\Users\ALEXAN~1\AppData\Local\Temp\ccdQChDh.s 			page 9


 372 007a 1B68     		ldr	r3, [r3]
 373 007c 181C     		mov	r0, r3
 374 007e FFF7FEFF 		bl	compareGPSCMD
 375 0082 031C     		mov	r3, r0
 376 0084 002B     		cmp	r3, #0
 377 0086 05D0     		beq	.L21
  76:.\gps.c       ****                     handleGPSData("GPVTG");
 378              		.loc 1 76 0
 379 0088 134B     		ldr	r3, .L24+20
 380 008a 181C     		mov	r0, r3
 381 008c FFF7FEFF 		bl	handleGPSData
  77:.\gps.c       ****                     completedVTG = 1;
 382              		.loc 1 77 0
 383 0090 0123     		mov	r3, #1
 384 0092 FB60     		str	r3, [r7, #12]
 385              	.L21:
  78:.\gps.c       ****                 }
  79:.\gps.c       ****                 if (compareGPSCMD(gpgsv)) {
 386              		.loc 1 79 0
 387 0094 114B     		ldr	r3, .L24+24
 388 0096 1B68     		ldr	r3, [r3]
 389 0098 181C     		mov	r0, r3
 390 009a FFF7FEFF 		bl	compareGPSCMD
 391 009e 031C     		mov	r3, r0
 392 00a0 002B     		cmp	r3, #0
 393 00a2 03D0     		beq	.L22
  80:.\gps.c       ****                     handleGPSData("GPVSG");
 394              		.loc 1 80 0
 395 00a4 0E4B     		ldr	r3, .L24+28
 396 00a6 181C     		mov	r0, r3
 397 00a8 FFF7FEFF 		bl	handleGPSData
 398              	.L22:
  81:.\gps.c       ****                 }
  82:.\gps.c       ****                 
  83:.\gps.c       ****                 gpsBufferPointer = 0;
 399              		.loc 1 83 0
 400 00ac 054B     		ldr	r3, .L24
 401 00ae 0022     		mov	r2, #0
 402 00b0 1A60     		str	r2, [r3]
  84:.\gps.c       ****                 resetGPSBuffer();
 403              		.loc 1 84 0
 404 00b2 FFF7FEFF 		bl	resetGPSBuffer
 405              	.L18:
 406              	.LBE3:
 407              	.LBE2:
  55:.\gps.c       ****     while(!completedVTG) {
 408              		.loc 1 55 0 discriminator 1
 409 00b6 FB68     		ldr	r3, [r7, #12]
 410 00b8 002B     		cmp	r3, #0
 411 00ba A9D0     		beq	.L23
  85:.\gps.c       ****             }
  86:.\gps.c       ****         }
  87:.\gps.c       ****     }
  88:.\gps.c       **** }
 412              		.loc 1 88 0
 413 00bc BD46     		mov	sp, r7
 414 00be 05B0     		add	sp, sp, #20
ARM GAS  C:\Users\ALEXAN~1\AppData\Local\Temp\ccdQChDh.s 			page 10


 415              		@ sp needed for prologue
 416 00c0 90BD     		pop	{r4, r7, pc}
 417              	.L25:
 418 00c2 C046     		.align	2
 419              	.L24:
 420 00c4 00000000 		.word	gpsBufferPointer
 421 00c8 00000000 		.word	gpsBuffer
 422 00cc 00000000 		.word	gpgga
 423 00d0 18000000 		.word	.LC9
 424 00d4 00000000 		.word	gpvtg
 425 00d8 20000000 		.word	.LC12
 426 00dc 00000000 		.word	gpgsv
 427 00e0 28000000 		.word	.LC15
 428              		.cfi_endproc
 429              	.LFE38:
 430              		.size	readGPSData, .-readGPSData
 431              		.section	.rodata
 432 002e 0000     		.align	2
 433              	.LC19:
 434 0030 2C00     		.ascii	",\000"
 435              		.global	__aeabi_d2iz
 436 0032 0000     		.align	2
 437              	.LC25:
 438 0034 256400   		.ascii	"%d\000"
 439 0037 00       		.section	.text.handleGPSData,"ax",%progbits
 440              		.align	2
 441              		.global	handleGPSData
 442              		.code	16
 443              		.thumb_func
 444              		.type	handleGPSData, %function
 445              	handleGPSData:
 446              	.LFB39:
  89:.\gps.c       **** void handleGPSData(char* cmd) {
 447              		.loc 1 89 0
 448              		.cfi_startproc
 449 0000 F0B5     		push	{r4, r5, r6, r7, lr}
 450              	.LCFI15:
 451              		.cfi_def_cfa_offset 20
 452              		.cfi_offset 4, -20
 453              		.cfi_offset 5, -16
 454              		.cfi_offset 6, -12
 455              		.cfi_offset 7, -8
 456              		.cfi_offset 14, -4
 457 0002 4746     		mov	r7, r8
 458 0004 80B4     		push	{r7}
 459              	.LCFI16:
 460              		.cfi_def_cfa_offset 24
 461              		.cfi_offset 8, -24
 462 0006 88B0     		sub	sp, sp, #32
 463              	.LCFI17:
 464              		.cfi_def_cfa_offset 56
 465 0008 00AF     		add	r7, sp, #0
 466              	.LCFI18:
 467              		.cfi_def_cfa_register 7
 468 000a F860     		str	r0, [r7, #12]
 469 000c 6846     		mov	r0, sp
 470 000e 8046     		mov	r8, r0
ARM GAS  C:\Users\ALEXAN~1\AppData\Local\Temp\ccdQChDh.s 			page 11


  90:.\gps.c       ****     int i = 0;
 471              		.loc 1 90 0
 472 0010 0020     		mov	r0, #0
 473 0012 F861     		str	r0, [r7, #28]
  91:.\gps.c       ****     char packet[gpsBufferPointer-1];
 474              		.loc 1 91 0
 475 0014 4F48     		ldr	r0, .L34
 476 0016 0068     		ldr	r0, [r0]
 477 0018 0138     		sub	r0, r0, #1
 478 001a 421E     		sub	r2, r0, #1
 479 001c 9446     		mov	ip, r2
 480 001e 6346     		mov	r3, ip
 481 0020 7B61     		str	r3, [r7, #20]
 482 0022 8446     		mov	ip, r0
 483 0024 6146     		mov	r1, ip
 484 0026 0024     		mov	r4, #0
 485 0028 A446     		mov	ip, r4
 486 002a 6246     		mov	r2, ip
 487 002c 4B0F     		lsr	r3, r1, #29
 488 002e 9C46     		mov	ip, r3
 489 0030 D400     		lsl	r4, r2, #3
 490 0032 7C60     		str	r4, [r7, #4]
 491 0034 6346     		mov	r3, ip
 492 0036 7C68     		ldr	r4, [r7, #4]
 493 0038 2343     		orr	r3, r4
 494 003a 7B60     		str	r3, [r7, #4]
 495 003c CB00     		lsl	r3, r1, #3
 496 003e 021C     		mov	r2, r0
 497 0040 131C     		mov	r3, r2
 498 0042 0022     		mov	r2, #0
 499 0044 141C     		mov	r4, r2
 500 0046 5A0F     		lsr	r2, r3, #29
 501 0048 E600     		lsl	r6, r4, #3
 502 004a 1643     		orr	r6, r2
 503 004c DD00     		lsl	r5, r3, #3
 504 004e 031C     		mov	r3, r0
 505 0050 0733     		add	r3, r3, #7
 506 0052 DB08     		lsr	r3, r3, #3
 507 0054 DB00     		lsl	r3, r3, #3
 508 0056 6C46     		mov	r4, sp
 509 0058 E41A     		sub	r4, r4, r3
 510 005a A546     		mov	sp, r4
 511 005c 6B46     		mov	r3, sp
 512 005e 0033     		add	r3, r3, #0
 513 0060 3B61     		str	r3, [r7, #16]
  92:.\gps.c       ****     for(i =1;i<gpsBufferPointer-1;i++) {
 514              		.loc 1 92 0
 515 0062 0123     		mov	r3, #1
 516 0064 FB61     		str	r3, [r7, #28]
 517 0066 0AE0     		b	.L27
 518              	.L28:
  93:.\gps.c       ****         packet[i-1] = gpsBuffer[i];
 519              		.loc 1 93 0 discriminator 2
 520 0068 FB69     		ldr	r3, [r7, #28]
 521 006a 013B     		sub	r3, r3, #1
 522 006c 3A49     		ldr	r1, .L34+4
 523 006e FA69     		ldr	r2, [r7, #28]
ARM GAS  C:\Users\ALEXAN~1\AppData\Local\Temp\ccdQChDh.s 			page 12


 524 0070 8A18     		add	r2, r1, r2
 525 0072 1178     		ldrb	r1, [r2]
 526 0074 3A69     		ldr	r2, [r7, #16]
 527 0076 D154     		strb	r1, [r2, r3]
  92:.\gps.c       ****     for(i =1;i<gpsBufferPointer-1;i++) {
 528              		.loc 1 92 0 discriminator 2
 529 0078 FB69     		ldr	r3, [r7, #28]
 530 007a 0133     		add	r3, r3, #1
 531 007c FB61     		str	r3, [r7, #28]
 532              	.L27:
  92:.\gps.c       ****     for(i =1;i<gpsBufferPointer-1;i++) {
 533              		.loc 1 92 0 is_stmt 0 discriminator 1
 534 007e 354B     		ldr	r3, .L34
 535 0080 1B68     		ldr	r3, [r3]
 536 0082 5A1E     		sub	r2, r3, #1
 537 0084 FB69     		ldr	r3, [r7, #28]
 538 0086 9A42     		cmp	r2, r3
 539 0088 EEDC     		bgt	.L28
  94:.\gps.c       ****     }
  95:.\gps.c       ****     
  96:.\gps.c       **** //    UART_PC_UartPutString(packet);
  97:.\gps.c       **** //    UART_PC_UartPutChar(0xd);
  98:.\gps.c       ****     
  99:.\gps.c       ****     char* token = strtok(packet, ",");
 540              		.loc 1 99 0 is_stmt 1
 541 008a 3A69     		ldr	r2, [r7, #16]
 542 008c 334B     		ldr	r3, .L34+8
 543 008e 101C     		mov	r0, r2
 544 0090 191C     		mov	r1, r3
 545 0092 FFF7FEFF 		bl	strtok
 546 0096 031C     		mov	r3, r0
 547 0098 BB61     		str	r3, [r7, #24]
 100:.\gps.c       ****     i = 0;
 548              		.loc 1 100 0
 549 009a 0023     		mov	r3, #0
 550 009c FB61     		str	r3, [r7, #28]
 101:.\gps.c       ****     while( token != NULL ) 
 551              		.loc 1 101 0
 552 009e 4FE0     		b	.L29
 553              	.L33:
 102:.\gps.c       ****     {
 103:.\gps.c       ****         if (i == 1 && strcmp(cmd, "GPGGA") == 0) {
 554              		.loc 1 103 0
 555 00a0 FB69     		ldr	r3, [r7, #28]
 556 00a2 012B     		cmp	r3, #1
 557 00a4 15D1     		bne	.L30
 558              		.loc 1 103 0 is_stmt 0 discriminator 1
 559 00a6 FA68     		ldr	r2, [r7, #12]
 560 00a8 2D4B     		ldr	r3, .L34+12
 561 00aa 101C     		mov	r0, r2
 562 00ac 191C     		mov	r1, r3
 563 00ae FFF7FEFF 		bl	strcmp
 564 00b2 031C     		mov	r3, r0
 565 00b4 002B     		cmp	r3, #0
 566 00b6 0CD1     		bne	.L30
 104:.\gps.c       ****             time_ = atof(token);
 567              		.loc 1 104 0 is_stmt 1
ARM GAS  C:\Users\ALEXAN~1\AppData\Local\Temp\ccdQChDh.s 			page 13


 568 00b8 BB69     		ldr	r3, [r7, #24]
 569 00ba 181C     		mov	r0, r3
 570 00bc FFF7FEFF 		bl	atof
 571 00c0 031C     		mov	r3, r0
 572 00c2 0C1C     		mov	r4, r1
 573 00c4 181C     		mov	r0, r3
 574 00c6 211C     		mov	r1, r4
 575 00c8 FFF7FEFF 		bl	__aeabi_d2iz
 576 00cc 021C     		mov	r2, r0
 577 00ce 254B     		ldr	r3, .L34+16
 578 00d0 1A60     		str	r2, [r3]
 579              	.L30:
 105:.\gps.c       ****         }
 106:.\gps.c       ****         if (i == 6 && strcmp(cmd, "GPVTG") == 0) {
 580              		.loc 1 106 0
 581 00d2 FB69     		ldr	r3, [r7, #28]
 582 00d4 062B     		cmp	r3, #6
 583 00d6 15D1     		bne	.L31
 584              		.loc 1 106 0 is_stmt 0 discriminator 1
 585 00d8 FA68     		ldr	r2, [r7, #12]
 586 00da 234B     		ldr	r3, .L34+20
 587 00dc 101C     		mov	r0, r2
 588 00de 191C     		mov	r1, r3
 589 00e0 FFF7FEFF 		bl	strcmp
 590 00e4 031C     		mov	r3, r0
 591 00e6 002B     		cmp	r3, #0
 592 00e8 0CD1     		bne	.L31
 107:.\gps.c       ****             speed_ = atof(token);
 593              		.loc 1 107 0 is_stmt 1
 594 00ea BB69     		ldr	r3, [r7, #24]
 595 00ec 181C     		mov	r0, r3
 596 00ee FFF7FEFF 		bl	atof
 597 00f2 031C     		mov	r3, r0
 598 00f4 0C1C     		mov	r4, r1
 599 00f6 181C     		mov	r0, r3
 600 00f8 211C     		mov	r1, r4
 601 00fa FFF7FEFF 		bl	__aeabi_d2iz
 602 00fe 021C     		mov	r2, r0
 603 0100 1A4B     		ldr	r3, .L34+24
 604 0102 1A60     		str	r2, [r3]
 605              	.L31:
 108:.\gps.c       ****         }
 109:.\gps.c       **** //        if (i == 2 && strcmp(cmd, "GPGGA") == 0) {
 110:.\gps.c       **** //            latitude = atof(token);
 111:.\gps.c       **** //        }
 112:.\gps.c       **** //        if (i == 3 && strcmp(cmd, "GPGGA") == 0) {
 113:.\gps.c       **** //            sscanf(token, "%c", &latitude_pos);
 114:.\gps.c       **** //        }
 115:.\gps.c       **** //        if (i == 4 && strcmp(cmd, "GPGGA") == 0) {
 116:.\gps.c       **** //            longitude = atof(token);;
 117:.\gps.c       **** //        }
 118:.\gps.c       **** //        if (i == 5 && strcmp(cmd, "GPGGA") == 0) {
 119:.\gps.c       **** //            sscanf(token, "%c", &longitude_pos);
 120:.\gps.c       **** //        }
 121:.\gps.c       ****         if (i == 7 && strcmp(cmd, "GPGGA") == 0) {
 606              		.loc 1 121 0
 607 0104 FB69     		ldr	r3, [r7, #28]
ARM GAS  C:\Users\ALEXAN~1\AppData\Local\Temp\ccdQChDh.s 			page 14


 608 0106 072B     		cmp	r3, #7
 609 0108 10D1     		bne	.L32
 610              		.loc 1 121 0 is_stmt 0 discriminator 1
 611 010a FA68     		ldr	r2, [r7, #12]
 612 010c 144B     		ldr	r3, .L34+12
 613 010e 101C     		mov	r0, r2
 614 0110 191C     		mov	r1, r3
 615 0112 FFF7FEFF 		bl	strcmp
 616 0116 031C     		mov	r3, r0
 617 0118 002B     		cmp	r3, #0
 618 011a 07D1     		bne	.L32
 122:.\gps.c       ****             sscanf(token, "%d", &numberOfSate_);
 619              		.loc 1 122 0 is_stmt 1
 620 011c B969     		ldr	r1, [r7, #24]
 621 011e 144A     		ldr	r2, .L34+28
 622 0120 144B     		ldr	r3, .L34+32
 623 0122 081C     		mov	r0, r1
 624 0124 111C     		mov	r1, r2
 625 0126 1A1C     		mov	r2, r3
 626 0128 FFF7FEFF 		bl	sscanf
 627              	.L32:
 123:.\gps.c       ****         }
 124:.\gps.c       **** //        if (i == 9 && strcmp(cmd, "GPGGA") == 0) {
 125:.\gps.c       **** //            altitude = atof(token);
 126:.\gps.c       **** //        }
 127:.\gps.c       ****         token = strtok(NULL, ",");
 628              		.loc 1 127 0
 629 012c 0B4B     		ldr	r3, .L34+8
 630 012e 0020     		mov	r0, #0
 631 0130 191C     		mov	r1, r3
 632 0132 FFF7FEFF 		bl	strtok
 633 0136 031C     		mov	r3, r0
 634 0138 BB61     		str	r3, [r7, #24]
 128:.\gps.c       ****         i++;
 635              		.loc 1 128 0
 636 013a FB69     		ldr	r3, [r7, #28]
 637 013c 0133     		add	r3, r3, #1
 638 013e FB61     		str	r3, [r7, #28]
 639              	.L29:
 101:.\gps.c       ****     while( token != NULL ) 
 640              		.loc 1 101 0 discriminator 1
 641 0140 BB69     		ldr	r3, [r7, #24]
 642 0142 002B     		cmp	r3, #0
 643 0144 ACD1     		bne	.L33
 644 0146 C546     		mov	sp, r8
 129:.\gps.c       ****     }
 130:.\gps.c       **** }
 645              		.loc 1 130 0
 646 0148 BD46     		mov	sp, r7
 647 014a 08B0     		add	sp, sp, #32
 648              		@ sp needed for prologue
 649 014c 04BC     		pop	{r2}
 650 014e 9046     		mov	r8, r2
 651 0150 F0BD     		pop	{r4, r5, r6, r7, pc}
 652              	.L35:
 653 0152 C046     		.align	2
 654              	.L34:
ARM GAS  C:\Users\ALEXAN~1\AppData\Local\Temp\ccdQChDh.s 			page 15


 655 0154 00000000 		.word	gpsBufferPointer
 656 0158 00000000 		.word	gpsBuffer
 657 015c 30000000 		.word	.LC19
 658 0160 18000000 		.word	.LC9
 659 0164 00000000 		.word	time_
 660 0168 20000000 		.word	.LC12
 661 016c 00000000 		.word	speed_
 662 0170 34000000 		.word	.LC25
 663 0174 00000000 		.word	numberOfSate_
 664              		.cfi_endproc
 665              	.LFE39:
 666              		.size	handleGPSData, .-handleGPSData
 667              		.section	.text.compareGPSCMD,"ax",%progbits
 668              		.align	2
 669              		.global	compareGPSCMD
 670              		.code	16
 671              		.thumb_func
 672              		.type	compareGPSCMD, %function
 673              	compareGPSCMD:
 674              	.LFB40:
 131:.\gps.c       **** 
 132:.\gps.c       **** int compareGPSCMD(char* cmd) {
 675              		.loc 1 132 0
 676              		.cfi_startproc
 677 0000 80B5     		push	{r7, lr}
 678              	.LCFI19:
 679              		.cfi_def_cfa_offset 8
 680              		.cfi_offset 7, -8
 681              		.cfi_offset 14, -4
 682 0002 84B0     		sub	sp, sp, #16
 683              	.LCFI20:
 684              		.cfi_def_cfa_offset 24
 685 0004 00AF     		add	r7, sp, #0
 686              	.LCFI21:
 687              		.cfi_def_cfa_register 7
 688 0006 7860     		str	r0, [r7, #4]
 133:.\gps.c       ****     int i = 0;
 689              		.loc 1 133 0
 690 0008 0023     		mov	r3, #0
 691 000a FB60     		str	r3, [r7, #12]
 134:.\gps.c       ****     int correct = 0;
 692              		.loc 1 134 0
 693 000c 0023     		mov	r3, #0
 694 000e BB60     		str	r3, [r7, #8]
 135:.\gps.c       ****     for(i =1;i<7;i++) {
 695              		.loc 1 135 0
 696 0010 0123     		mov	r3, #1
 697 0012 FB60     		str	r3, [r7, #12]
 698 0014 10E0     		b	.L37
 699              	.L39:
 136:.\gps.c       ****         if (cmd[i-1] == gpsBuffer[i])
 700              		.loc 1 136 0
 701 0016 FB68     		ldr	r3, [r7, #12]
 702 0018 013B     		sub	r3, r3, #1
 703 001a 7A68     		ldr	r2, [r7, #4]
 704 001c D318     		add	r3, r2, r3
 705 001e 1A78     		ldrb	r2, [r3]
ARM GAS  C:\Users\ALEXAN~1\AppData\Local\Temp\ccdQChDh.s 			page 16


 706 0020 0B49     		ldr	r1, .L41
 707 0022 FB68     		ldr	r3, [r7, #12]
 708 0024 CB18     		add	r3, r1, r3
 709 0026 1B78     		ldrb	r3, [r3]
 710 0028 9A42     		cmp	r2, r3
 711 002a 02D1     		bne	.L38
 137:.\gps.c       ****             correct++;
 712              		.loc 1 137 0
 713 002c BB68     		ldr	r3, [r7, #8]
 714 002e 0133     		add	r3, r3, #1
 715 0030 BB60     		str	r3, [r7, #8]
 716              	.L38:
 135:.\gps.c       ****     for(i =1;i<7;i++) {
 717              		.loc 1 135 0
 718 0032 FB68     		ldr	r3, [r7, #12]
 719 0034 0133     		add	r3, r3, #1
 720 0036 FB60     		str	r3, [r7, #12]
 721              	.L37:
 135:.\gps.c       ****     for(i =1;i<7;i++) {
 722              		.loc 1 135 0 is_stmt 0 discriminator 1
 723 0038 FB68     		ldr	r3, [r7, #12]
 724 003a 062B     		cmp	r3, #6
 725 003c EBDD     		ble	.L39
 138:.\gps.c       ****     }
 139:.\gps.c       ****     return correct == 6;
 726              		.loc 1 139 0 is_stmt 1
 727 003e BB68     		ldr	r3, [r7, #8]
 728 0040 063B     		sub	r3, r3, #6
 729 0042 5A42     		neg	r2, r3
 730 0044 5341     		adc	r3, r3, r2
 731 0046 DBB2     		uxtb	r3, r3
 140:.\gps.c       **** }
 732              		.loc 1 140 0
 733 0048 181C     		mov	r0, r3
 734 004a BD46     		mov	sp, r7
 735 004c 04B0     		add	sp, sp, #16
 736              		@ sp needed for prologue
 737 004e 80BD     		pop	{r7, pc}
 738              	.L42:
 739              		.align	2
 740              	.L41:
 741 0050 00000000 		.word	gpsBuffer
 742              		.cfi_endproc
 743              	.LFE40:
 744              		.size	compareGPSCMD, .-compareGPSCMD
 745              		.section	.text.resetGPSBuffer,"ax",%progbits
 746              		.align	2
 747              		.global	resetGPSBuffer
 748              		.code	16
 749              		.thumb_func
 750              		.type	resetGPSBuffer, %function
 751              	resetGPSBuffer:
 752              	.LFB41:
 141:.\gps.c       **** void resetGPSBuffer() {
 753              		.loc 1 141 0
 754              		.cfi_startproc
 755 0000 80B5     		push	{r7, lr}
ARM GAS  C:\Users\ALEXAN~1\AppData\Local\Temp\ccdQChDh.s 			page 17


 756              	.LCFI22:
 757              		.cfi_def_cfa_offset 8
 758              		.cfi_offset 7, -8
 759              		.cfi_offset 14, -4
 760 0002 82B0     		sub	sp, sp, #8
 761              	.LCFI23:
 762              		.cfi_def_cfa_offset 16
 763 0004 00AF     		add	r7, sp, #0
 764              	.LCFI24:
 765              		.cfi_def_cfa_register 7
 142:.\gps.c       ****     int i;
 143:.\gps.c       ****     for (i=0;i<300;i++){
 766              		.loc 1 143 0
 767 0006 0023     		mov	r3, #0
 768 0008 7B60     		str	r3, [r7, #4]
 769 000a 07E0     		b	.L44
 770              	.L45:
 144:.\gps.c       ****      gpsBuffer[i]=' ';             
 771              		.loc 1 144 0 discriminator 2
 772 000c 074A     		ldr	r2, .L46
 773 000e 7B68     		ldr	r3, [r7, #4]
 774 0010 D318     		add	r3, r2, r3
 775 0012 2022     		mov	r2, #32
 776 0014 1A70     		strb	r2, [r3]
 143:.\gps.c       ****     for (i=0;i<300;i++){
 777              		.loc 1 143 0 discriminator 2
 778 0016 7B68     		ldr	r3, [r7, #4]
 779 0018 0133     		add	r3, r3, #1
 780 001a 7B60     		str	r3, [r7, #4]
 781              	.L44:
 143:.\gps.c       ****     for (i=0;i<300;i++){
 782              		.loc 1 143 0 is_stmt 0 discriminator 1
 783 001c 7A68     		ldr	r2, [r7, #4]
 784 001e 044B     		ldr	r3, .L46+4
 785 0020 9A42     		cmp	r2, r3
 786 0022 F3DD     		ble	.L45
 145:.\gps.c       ****    } 
 146:.\gps.c       **** }...
 787              		.loc 1 146 0 is_stmt 1
 788 0024 BD46     		mov	sp, r7
 789 0026 02B0     		add	sp, sp, #8
 790              		@ sp needed for prologue
 791 0028 80BD     		pop	{r7, pc}
 792              	.L47:
 793 002a C046     		.align	2
 794              	.L46:
 795 002c 00000000 		.word	gpsBuffer
 796 0030 2B010000 		.word	299
 797              		.cfi_endproc
 798              	.LFE41:
 799              		.size	resetGPSBuffer, .-resetGPSBuffer
 800              		.text
 801              	.Letext0:
 802              		.file 2 "./Generated_Source/PSoC4/cytypes.h"