ARM GAS  C:\Users\ALEXAN~1\AppData\Local\Temp\ccpswxDW.s 			page 1


   1              		.cpu cortex-m0
   2              		.fpu softvfp
   3              		.eabi_attribute 20, 1
   4              		.eabi_attribute 21, 1
   5              		.eabi_attribute 23, 3
   6              		.eabi_attribute 24, 1
   7              		.eabi_attribute 25, 1
   8              		.eabi_attribute 26, 1
   9              		.eabi_attribute 30, 6
  10              		.eabi_attribute 34, 0
  11              		.eabi_attribute 18, 4
  12              		.code	16
  13              		.file	"main.c"
  14              		.text
  15              	.Ltext0:
  16              		.cfi_sections	.debug_frame
  17              		.section	.text.main,"ax",%progbits
  18              		.align	2
  19              		.global	main
  20              		.code	16
  21              		.thumb_func
  22              		.type	main, %function
  23              	main:
  24              	.LFB33:
  25              		.file 1 ".\\main.c"
   1:.\main.c      **** #include <project.h>
   2:.\main.c      **** #include <string.h>
   3:.\main.c      **** #include <stdio.h>
   4:.\main.c      **** #include <stdlib.h>
   5:.\main.c      **** #include <math.h>
   6:.\main.c      **** 
   7:.\main.c      **** #include "gps.h"
   8:.\main.c      **** 
   9:.\main.c      **** /* I2C slave address to communicate with */
  10:.\main.c      **** #define I2C_SLAVE_ADDR  (0x52u)
  11:.\main.c      **** 
  12:.\main.c      **** void processUSBUart();
  13:.\main.c      **** 
  14:.\main.c      **** /******** SPI ***************/
  15:.\main.c      **** CY_ISR_PROTO(isr_spi_rx);
  16:.\main.c      **** /********* /SPI *************/
  17:.\main.c      **** 
  18:.\main.c      **** void reverse(char *str, int len);
  19:.\main.c      **** int intToStr(int x, char str[], int d);
  20:.\main.c      **** void ftoa(float n, char *res, int afterpoint);
  21:.\main.c      **** 
  22:.\main.c      **** int main()
  23:.\main.c      **** {
  26              		.loc 1 23 0
  27              		.cfi_startproc
  28 0000 80B5     		push	{r7, lr}
  29              	.LCFI0:
  30              		.cfi_def_cfa_offset 8
  31              		.cfi_offset 7, -8
  32              		.cfi_offset 14, -4
  33 0002 00AF     		add	r7, sp, #0
  34              	.LCFI1:
ARM GAS  C:\Users\ALEXAN~1\AppData\Local\Temp\ccpswxDW.s 			page 2


  35              		.cfi_def_cfa_register 7
  24:.\main.c      ****    
  25:.\main.c      ****     CyGlobalIntEnable; /* Uncomment this line to enable global interrupts. */
  36              		.loc 1 25 0
  37              	@ 25 ".\main.c" 1
  38 0004 62B6     		CPSIE   i
  39              	@ 0 "" 2
  26:.\main.c      ****     //I2C_1_Start();
  27:.\main.c      ****     UART_PC_Start();
  40              		.loc 1 27 0
  41              		.code	16
  42 0006 FFF7FEFF 		bl	UART_PC_Start
  28:.\main.c      ****     UART_GPS_Start();
  43              		.loc 1 28 0
  44 000a FFF7FEFF 		bl	UART_GPS_Start
  29:.\main.c      ****     
  30:.\main.c      ****     SPIS_1_SetCustomInterruptHandler(isr_spi_rx);
  45              		.loc 1 30 0
  46 000e 054B     		ldr	r3, .L3
  47 0010 181C     		mov	r0, r3
  48 0012 FFF7FEFF 		bl	SPIS_1_SetCustomInterruptHandler
  31:.\main.c      **** 	SPIS_1_SpiUartClearTxBuffer();
  49              		.loc 1 31 0
  50 0016 FFF7FEFF 		bl	SPIS_1_SpiUartClearTxBuffer
  32:.\main.c      ****     SPIS_1_Start();
  51              		.loc 1 32 0
  52 001a FFF7FEFF 		bl	SPIS_1_Start
  53              	.L2:
  33:.\main.c      ****  
  34:.\main.c      ****     for(;;)
  35:.\main.c      ****     {
  36:.\main.c      ****         readGPSData();
  54              		.loc 1 36 0 discriminator 1
  55 001e FFF7FEFF 		bl	readGPSData
  37:.\main.c      **** //        UART_PC_UartPutString("GPS Speed: ");
  38:.\main.c      **** //        UART_PC_UartPutString(getGPSUartSpeed());
  39:.\main.c      **** //        UART_PC_UartPutChar(0xd);
  40:.\main.c      **** //        
  41:.\main.c      **** //        UART_PC_UartPutString("Number of satelites: ");
  42:.\main.c      **** //        UART_PC_UartPutString(GetGPSTime());
  43:.\main.c      **** //        UART_PC_UartPutChar(0xd);
  44:.\main.c      ****     }
  56              		.loc 1 44 0 discriminator 1
  57 0022 FCE7     		b	.L2
  58              	.L4:
  59              		.align	2
  60              	.L3:
  61 0024 00000000 		.word	isr_spi_rx
  62              		.cfi_endproc
  63              	.LFE33:
  64              		.size	main, .-main
  65              		.section	.text.isr_spi_rx,"ax",%progbits
  66              		.align	2
  67              		.global	isr_spi_rx
  68              		.code	16
  69              		.thumb_func
  70              		.type	isr_spi_rx, %function
ARM GAS  C:\Users\ALEXAN~1\AppData\Local\Temp\ccpswxDW.s 			page 3


  71              	isr_spi_rx:
  72              	.LFB34:
  45:.\main.c      **** }
  46:.\main.c      **** 
  47:.\main.c      **** CY_ISR(isr_spi_rx) {
  73              		.loc 1 47 0
  74              		.cfi_startproc
  75 0000 80B5     		push	{r7, lr}
  76              	.LCFI2:
  77              		.cfi_def_cfa_offset 8
  78              		.cfi_offset 7, -8
  79              		.cfi_offset 14, -4
  80 0002 82B0     		sub	sp, sp, #8
  81              	.LCFI3:
  82              		.cfi_def_cfa_offset 16
  83 0004 00AF     		add	r7, sp, #0
  84              	.LCFI4:
  85              		.cfi_def_cfa_register 7
  48:.\main.c      **** 
  49:.\main.c      **** 	uint16 rxvalue;
  50:.\main.c      **** 	uint8 cmd, rddata, addr;
  51:.\main.c      **** 	rxvalue = SPIS_1_SpiUartReadRxData();
  86              		.loc 1 51 0
  87 0006 FFF7FEFF 		bl	SPIS_1_SpiUartReadRxData
  88 000a 021C     		mov	r2, r0
  89 000c BB1D     		add	r3, r7, #6
  90 000e 1A80     		strh	r2, [r3]
  52:.\main.c      **** 	cmd = (rxvalue >> 14) & 0x3;  // cmd = rdvalue[15:14]
  91              		.loc 1 52 0
  92 0010 BB1D     		add	r3, r7, #6
  93 0012 1B88     		ldrh	r3, [r3]
  94 0014 9B0B     		lsr	r3, r3, #14
  95 0016 9BB2     		uxth	r3, r3
  96 0018 D9B2     		uxtb	r1, r3
  97 001a 7B1D     		add	r3, r7, #5
  98 001c 0322     		mov	r2, #3
  99 001e 0A40     		and	r2, r1
 100 0020 1A70     		strb	r2, [r3]
  53:.\main.c      **** 	addr = (rxvalue >> 8) & 0x3f; // addr = rdvalue[13:8]
 101              		.loc 1 53 0
 102 0022 BB1D     		add	r3, r7, #6
 103 0024 1B88     		ldrh	r3, [r3]
 104 0026 1B0A     		lsr	r3, r3, #8
 105 0028 9BB2     		uxth	r3, r3
 106 002a D9B2     		uxtb	r1, r3
 107 002c 3B1D     		add	r3, r7, #4
 108 002e 3F22     		mov	r2, #63
 109 0030 0A40     		and	r2, r1
 110 0032 1A70     		strb	r2, [r3]
  54:.\main.c      **** 	rddata = rxvalue & 0xff;      // data = rdvalue[7:0]
 111              		.loc 1 54 0
 112 0034 FB1C     		add	r3, r7, #3
 113 0036 BA1D     		add	r2, r7, #6
 114 0038 1288     		ldrh	r2, [r2]
 115 003a 1A70     		strb	r2, [r3]
  55:.\main.c      ****     
  56:.\main.c      **** 	switch (addr) {
ARM GAS  C:\Users\ALEXAN~1\AppData\Local\Temp\ccpswxDW.s 			page 4


 116              		.loc 1 56 0
 117 003c 3B1D     		add	r3, r7, #4
 118 003e 1B78     		ldrb	r3, [r3]
 119 0040 012B     		cmp	r3, #1
 120 0042 0AD1     		bne	.L9
 121              	.L7:
  57:.\main.c      ****         case 0x1:
  58:.\main.c      ****             SPIS_1_SpiUartClearTxBuffer();
 122              		.loc 1 58 0
 123 0044 FFF7FEFF 		bl	SPIS_1_SpiUartClearTxBuffer
  59:.\main.c      **** 			SPIS_1_SpiUartWriteTxData( (int16)GetGPSTime() );
 124              		.loc 1 59 0
 125 0048 FFF7FEFF 		bl	GetGPSTime
 126 004c 031C     		mov	r3, r0
 127 004e 9BB2     		uxth	r3, r3
 128 0050 1BB2     		sxth	r3, r3
 129 0052 181C     		mov	r0, r3
 130 0054 FFF7FEFF 		bl	SPIS_1_SpiUartWriteTxData
  60:.\main.c      ****             break;
 131              		.loc 1 60 0
 132 0058 00E0     		b	.L8
 133              	.L9:
  61:.\main.c      **** 		default:
  62:.\main.c      **** 			break;
 134              		.loc 1 62 0
 135 005a C046     		mov	r8, r8
 136              	.L8:
  63:.\main.c      **** 	}
  64:.\main.c      **** 	
  65:.\main.c      **** 	SPIS_1_ClearRxInterruptSource(SPIS_1_GetRxInterruptSource());
 137              		.loc 1 65 0
 138 005c 034B     		ldr	r3, .L10
 139 005e 034A     		ldr	r2, .L10
 140 0060 1268     		ldr	r2, [r2]
 141 0062 1A60     		str	r2, [r3]
  66:.\main.c      **** }...
 142              		.loc 1 66 0
 143 0064 BD46     		mov	sp, r7
 144 0066 02B0     		add	sp, sp, #8
 145              		@ sp needed for prologue
 146 0068 80BD     		pop	{r7, pc}
 147              	.L11:
 148 006a C046     		.align	2
 149              	.L10:
 150 006c C00F0740 		.word	1074204608
 151              		.cfi_endproc
 152              	.LFE34:
 153              		.size	isr_spi_rx, .-isr_spi_rx
 154              		.text
 155              	.Letext0:
 156              		.file 2 "./Generated_Source/PSoC4/cytypes.h"