ARM GAS  C:\Users\ALEXAN~1\AppData\Local\Temp\ccox2OIc.s 			page 1


   1              		.cpu cortex-m0
   2              		.fpu softvfp
   3              		.eabi_attribute 20, 1
   4              		.eabi_attribute 21, 1
   5              		.eabi_attribute 23, 3
   6              		.eabi_attribute 24, 1
   7              		.eabi_attribute 25, 1
   8              		.eabi_attribute 26, 1
   9              		.eabi_attribute 30, 6
  10              		.eabi_attribute 34, 0
  11              		.eabi_attribute 18, 4
  12              		.code	16
  13              		.file	"SW_Tx_UART_1.c"
  14              		.text
  15              	.Ltext0:
  16              		.cfi_sections	.debug_frame
  17              		.global	SW_Tx_UART_1_pinNumber
  18              		.bss
  19              		.align	2
  20              		.type	SW_Tx_UART_1_pinNumber, %object
  21              		.size	SW_Tx_UART_1_pinNumber, 4
  22              	SW_Tx_UART_1_pinNumber:
  23 0000 00000000 		.space	4
  24              		.global	SW_Tx_UART_1_pinPortNumber
  25              		.align	2
  26              		.type	SW_Tx_UART_1_pinPortNumber, %object
  27              		.size	SW_Tx_UART_1_pinPortNumber, 4
  28              	SW_Tx_UART_1_pinPortNumber:
  29 0004 00000000 		.space	4
  30              		.global	SW_Tx_UART_1_pinDrAdress
  31              		.data
  32              		.align	2
  33              		.type	SW_Tx_UART_1_pinDrAdress, %object
  34              		.size	SW_Tx_UART_1_pinDrAdress, 4
  35              	SW_Tx_UART_1_pinDrAdress:
  36 0000 00000440 		.word	1074003968
  37              		.section	.text.SW_Tx_UART_1_Start,"ax",%progbits
  38              		.align	2
  39              		.global	SW_Tx_UART_1_Start
  40              		.code	16
  41              		.thumb_func
  42              		.type	SW_Tx_UART_1_Start, %function
  43              	SW_Tx_UART_1_Start:
  44              	.LFB0:
  45              		.file 1 ".\\Generated_Source\\PSoC4\\SW_Tx_UART_1.c"
   1:.\Generated_Source\PSoC4/SW_Tx_UART_1.c **** /*******************************************************************************
   2:.\Generated_Source\PSoC4/SW_Tx_UART_1.c **** * File Name: SW_Tx_UART_1.c
   3:.\Generated_Source\PSoC4/SW_Tx_UART_1.c **** * Version 1.20
   4:.\Generated_Source\PSoC4/SW_Tx_UART_1.c **** *
   5:.\Generated_Source\PSoC4/SW_Tx_UART_1.c **** * Description:
   6:.\Generated_Source\PSoC4/SW_Tx_UART_1.c **** *  This file provides the source code to the API for the Software Transmit UART.
   7:.\Generated_Source\PSoC4/SW_Tx_UART_1.c **** *
   8:.\Generated_Source\PSoC4/SW_Tx_UART_1.c **** ********************************************************************************
   9:.\Generated_Source\PSoC4/SW_Tx_UART_1.c **** * Copyright 2013-2014, Cypress Semiconductor Corporation.  All rights reserved.
  10:.\Generated_Source\PSoC4/SW_Tx_UART_1.c **** * You may use this file only in accordance with the license, terms, conditions,
  11:.\Generated_Source\PSoC4/SW_Tx_UART_1.c **** * disclaimers, and limitations in the end user license agreement accompanying
  12:.\Generated_Source\PSoC4/SW_Tx_UART_1.c **** * the software package with which this file was provided.
ARM GAS  C:\Users\ALEXAN~1\AppData\Local\Temp\ccox2OIc.s 			page 2


  13:.\Generated_Source\PSoC4/SW_Tx_UART_1.c **** *******************************************************************************/
  14:.\Generated_Source\PSoC4/SW_Tx_UART_1.c **** 
  15:.\Generated_Source\PSoC4/SW_Tx_UART_1.c **** #include "SW_Tx_UART_1_PVT.h"
  16:.\Generated_Source\PSoC4/SW_Tx_UART_1.c **** 
  17:.\Generated_Source\PSoC4/SW_Tx_UART_1.c **** #if(SW_Tx_UART_1_PIN_STATIC_MODE == 1u)
  18:.\Generated_Source\PSoC4/SW_Tx_UART_1.c ****     uint32 SW_Tx_UART_1_pinNumber = SW_Tx_UART_1_PIN_NUMBER;
  19:.\Generated_Source\PSoC4/SW_Tx_UART_1.c ****     uint32 SW_Tx_UART_1_pinPortNumber = SW_Tx_UART_1_PIN_PORT_NUMBER;
  20:.\Generated_Source\PSoC4/SW_Tx_UART_1.c ****     #if(CY_PSOC3)
  21:.\Generated_Source\PSoC4/SW_Tx_UART_1.c ****         uint32 pdata SW_Tx_UART_1_pinDrAdress = SW_Tx_UART_1_PIN_DR;
  22:.\Generated_Source\PSoC4/SW_Tx_UART_1.c ****     #else
  23:.\Generated_Source\PSoC4/SW_Tx_UART_1.c ****         uint32 SW_Tx_UART_1_pinDrAdress = SW_Tx_UART_1_PIN_DR;
  24:.\Generated_Source\PSoC4/SW_Tx_UART_1.c ****     #endif /* (CY_PSOC3) */
  25:.\Generated_Source\PSoC4/SW_Tx_UART_1.c **** #else
  26:.\Generated_Source\PSoC4/SW_Tx_UART_1.c ****     uint32 SW_Tx_UART_1_pinNumber;
  27:.\Generated_Source\PSoC4/SW_Tx_UART_1.c ****     uint32 SW_Tx_UART_1_pinPortNumber;
  28:.\Generated_Source\PSoC4/SW_Tx_UART_1.c ****     #if(CY_PSOC3)
  29:.\Generated_Source\PSoC4/SW_Tx_UART_1.c ****         uint32 pdata SW_Tx_UART_1_pinDrAdress;
  30:.\Generated_Source\PSoC4/SW_Tx_UART_1.c ****     #else
  31:.\Generated_Source\PSoC4/SW_Tx_UART_1.c ****         uint32 SW_Tx_UART_1_pinDrAdress;
  32:.\Generated_Source\PSoC4/SW_Tx_UART_1.c ****     #endif /* (CY_PSOC3) */
  33:.\Generated_Source\PSoC4/SW_Tx_UART_1.c **** #endif /* (SW_Tx_UART_1_PIN_STATIC_MODE == 1u) */
  34:.\Generated_Source\PSoC4/SW_Tx_UART_1.c **** 
  35:.\Generated_Source\PSoC4/SW_Tx_UART_1.c **** 
  36:.\Generated_Source\PSoC4/SW_Tx_UART_1.c **** #if(SW_Tx_UART_1_PIN_STATIC_MODE == 1u)
  37:.\Generated_Source\PSoC4/SW_Tx_UART_1.c ****     /*******************************************************************************
  38:.\Generated_Source\PSoC4/SW_Tx_UART_1.c ****     * Function Name: SW_Tx_UART_1_Start
  39:.\Generated_Source\PSoC4/SW_Tx_UART_1.c ****     ********************************************************************************
  40:.\Generated_Source\PSoC4/SW_Tx_UART_1.c ****     *
  41:.\Generated_Source\PSoC4/SW_Tx_UART_1.c ****     * Summary:
  42:.\Generated_Source\PSoC4/SW_Tx_UART_1.c ****     *  Empty function. Included for consistency with other
  43:.\Generated_Source\PSoC4/SW_Tx_UART_1.c ****     *  components. This API is not available when PinAssignmentMethod
  44:.\Generated_Source\PSoC4/SW_Tx_UART_1.c ****     *  is set to Dynamic.
  45:.\Generated_Source\PSoC4/SW_Tx_UART_1.c ****     *
  46:.\Generated_Source\PSoC4/SW_Tx_UART_1.c ****     * Parameters:
  47:.\Generated_Source\PSoC4/SW_Tx_UART_1.c ****     *  None
  48:.\Generated_Source\PSoC4/SW_Tx_UART_1.c ****     *
  49:.\Generated_Source\PSoC4/SW_Tx_UART_1.c ****     * Return:
  50:.\Generated_Source\PSoC4/SW_Tx_UART_1.c ****     *  None
  51:.\Generated_Source\PSoC4/SW_Tx_UART_1.c ****     *
  52:.\Generated_Source\PSoC4/SW_Tx_UART_1.c ****     *******************************************************************************/
  53:.\Generated_Source\PSoC4/SW_Tx_UART_1.c ****     void SW_Tx_UART_1_Start(void) 
  54:.\Generated_Source\PSoC4/SW_Tx_UART_1.c ****     {
  46              		.loc 1 54 0
  47              		.cfi_startproc
  48 0000 80B5     		push	{r7, lr}
  49              	.LCFI0:
  50              		.cfi_def_cfa_offset 8
  51              		.cfi_offset 7, -8
  52              		.cfi_offset 14, -4
  53 0002 00AF     		add	r7, sp, #0
  54              	.LCFI1:
  55              		.cfi_def_cfa_register 7
  55:.\Generated_Source\PSoC4/SW_Tx_UART_1.c **** 
  56:.\Generated_Source\PSoC4/SW_Tx_UART_1.c ****     }
  56              		.loc 1 56 0
  57 0004 BD46     		mov	sp, r7
  58              		@ sp needed for prologue
ARM GAS  C:\Users\ALEXAN~1\AppData\Local\Temp\ccox2OIc.s 			page 3


  59 0006 80BD     		pop	{r7, pc}
  60              		.cfi_endproc
  61              	.LFE0:
  62              		.size	SW_Tx_UART_1_Start, .-SW_Tx_UART_1_Start
  63              		.section	.text.SW_Tx_UART_1_Stop,"ax",%progbits
  64              		.align	2
  65              		.global	SW_Tx_UART_1_Stop
  66              		.code	16
  67              		.thumb_func
  68              		.type	SW_Tx_UART_1_Stop, %function
  69              	SW_Tx_UART_1_Stop:
  70              	.LFB1:
  57:.\Generated_Source\PSoC4/SW_Tx_UART_1.c **** #else
  58:.\Generated_Source\PSoC4/SW_Tx_UART_1.c ****     /*******************************************************************************
  59:.\Generated_Source\PSoC4/SW_Tx_UART_1.c ****     * Function Name: SW_Tx_UART_1_StartEx
  60:.\Generated_Source\PSoC4/SW_Tx_UART_1.c ****     ********************************************************************************
  61:.\Generated_Source\PSoC4/SW_Tx_UART_1.c ****     *
  62:.\Generated_Source\PSoC4/SW_Tx_UART_1.c ****     * Summary:
  63:.\Generated_Source\PSoC4/SW_Tx_UART_1.c ****     *  Configures the SW Tx UART to use the pin specified
  64:.\Generated_Source\PSoC4/SW_Tx_UART_1.c ****     *  by the parameters. This API is only available when
  65:.\Generated_Source\PSoC4/SW_Tx_UART_1.c ****     *  PinAssignmentMethod is set to Dynamic.
  66:.\Generated_Source\PSoC4/SW_Tx_UART_1.c ****     *
  67:.\Generated_Source\PSoC4/SW_Tx_UART_1.c ****     * Parameters:
  68:.\Generated_Source\PSoC4/SW_Tx_UART_1.c ****     *  port:  Port number for dynamic pin assignment
  69:.\Generated_Source\PSoC4/SW_Tx_UART_1.c ****     *  pin:   Pin number for dynamic pin assignment
  70:.\Generated_Source\PSoC4/SW_Tx_UART_1.c ****     *
  71:.\Generated_Source\PSoC4/SW_Tx_UART_1.c ****     * Return:
  72:.\Generated_Source\PSoC4/SW_Tx_UART_1.c ****     *  None
  73:.\Generated_Source\PSoC4/SW_Tx_UART_1.c ****     *
  74:.\Generated_Source\PSoC4/SW_Tx_UART_1.c ****     *******************************************************************************/
  75:.\Generated_Source\PSoC4/SW_Tx_UART_1.c ****     void SW_Tx_UART_1_StartEx(uint8 port, uint8 pin) 
  76:.\Generated_Source\PSoC4/SW_Tx_UART_1.c ****     {
  77:.\Generated_Source\PSoC4/SW_Tx_UART_1.c ****         uint32 portConfigAddr;
  78:.\Generated_Source\PSoC4/SW_Tx_UART_1.c **** 
  79:.\Generated_Source\PSoC4/SW_Tx_UART_1.c ****         #if (CY_PSOC4)
  80:.\Generated_Source\PSoC4/SW_Tx_UART_1.c ****             uint32 portDataRegAddr;
  81:.\Generated_Source\PSoC4/SW_Tx_UART_1.c ****         #endif /* (CY_PSOC4) */
  82:.\Generated_Source\PSoC4/SW_Tx_UART_1.c **** 
  83:.\Generated_Source\PSoC4/SW_Tx_UART_1.c ****         if ((pin <= SW_Tx_UART_1_MAX_PIN_NUMBER) && (port <= SW_Tx_UART_1_MAX_PORT_NUMBER))
  84:.\Generated_Source\PSoC4/SW_Tx_UART_1.c ****         {
  85:.\Generated_Source\PSoC4/SW_Tx_UART_1.c ****             #if (!CY_PSOC4)
  86:.\Generated_Source\PSoC4/SW_Tx_UART_1.c ****                 portConfigAddr = SW_Tx_UART_1_PORT_CNF_BASE;
  87:.\Generated_Source\PSoC4/SW_Tx_UART_1.c ****                 portConfigAddr += ((uint32)port * (SW_Tx_UART_1_MAX_PIN_NUMBER + 1u)) + pin;
  88:.\Generated_Source\PSoC4/SW_Tx_UART_1.c ****                 CyPins_SetPinDriveMode(portConfigAddr, CY_PINS_DM_STRONG);
  89:.\Generated_Source\PSoC4/SW_Tx_UART_1.c ****                 CyPins_SetPin(portConfigAddr);
  90:.\Generated_Source\PSoC4/SW_Tx_UART_1.c ****                 SW_Tx_UART_1_pinDrAdress = portConfigAddr;
  91:.\Generated_Source\PSoC4/SW_Tx_UART_1.c ****             #else
  92:.\Generated_Source\PSoC4/SW_Tx_UART_1.c ****                 portConfigAddr = SW_Tx_UART_1_PORT_CNF_BASE + (SW_Tx_UART_1_PORT_CNF_SIZE * port) +
  93:.\Generated_Source\PSoC4/SW_Tx_UART_1.c ****                                                                                 SW_Tx_UART_1_PORT_C
  94:.\Generated_Source\PSoC4/SW_Tx_UART_1.c ****                 CY_SYS_PINS_SET_DRIVE_MODE(portConfigAddr, pin, CY_SYS_PINS_DM_STRONG);
  95:.\Generated_Source\PSoC4/SW_Tx_UART_1.c ****                 portDataRegAddr = SW_Tx_UART_1_PORT_CNF_BASE + (SW_Tx_UART_1_PORT_CNF_SIZE * port) 
  96:.\Generated_Source\PSoC4/SW_Tx_UART_1.c ****                                                                                 SW_Tx_UART_1_PORT_C
  97:.\Generated_Source\PSoC4/SW_Tx_UART_1.c ****                 CY_SYS_PINS_SET_PIN(portDataRegAddr, pin);
  98:.\Generated_Source\PSoC4/SW_Tx_UART_1.c ****                 SW_Tx_UART_1_pinDrAdress = portDataRegAddr;
  99:.\Generated_Source\PSoC4/SW_Tx_UART_1.c ****             #endif /* (!CY_PSOC4) */
 100:.\Generated_Source\PSoC4/SW_Tx_UART_1.c ****             SW_Tx_UART_1_pinNumber = pin;
 101:.\Generated_Source\PSoC4/SW_Tx_UART_1.c ****             SW_Tx_UART_1_pinPortNumber = port;
ARM GAS  C:\Users\ALEXAN~1\AppData\Local\Temp\ccox2OIc.s 			page 4


 102:.\Generated_Source\PSoC4/SW_Tx_UART_1.c ****         }
 103:.\Generated_Source\PSoC4/SW_Tx_UART_1.c ****     }
 104:.\Generated_Source\PSoC4/SW_Tx_UART_1.c **** #endif /* (SW_Tx_UART_1_PIN_STATIC_MODE == 1u) */
 105:.\Generated_Source\PSoC4/SW_Tx_UART_1.c **** 
 106:.\Generated_Source\PSoC4/SW_Tx_UART_1.c **** 
 107:.\Generated_Source\PSoC4/SW_Tx_UART_1.c **** /*******************************************************************************
 108:.\Generated_Source\PSoC4/SW_Tx_UART_1.c **** * Function Name: SW_Tx_UART_1_Stop
 109:.\Generated_Source\PSoC4/SW_Tx_UART_1.c **** ********************************************************************************
 110:.\Generated_Source\PSoC4/SW_Tx_UART_1.c **** *
 111:.\Generated_Source\PSoC4/SW_Tx_UART_1.c **** * Summary:
 112:.\Generated_Source\PSoC4/SW_Tx_UART_1.c **** *  Empty function. Included for consistency with other components.
 113:.\Generated_Source\PSoC4/SW_Tx_UART_1.c **** *
 114:.\Generated_Source\PSoC4/SW_Tx_UART_1.c **** * Parameters:
 115:.\Generated_Source\PSoC4/SW_Tx_UART_1.c **** *  None
 116:.\Generated_Source\PSoC4/SW_Tx_UART_1.c **** *
 117:.\Generated_Source\PSoC4/SW_Tx_UART_1.c **** * Return:
 118:.\Generated_Source\PSoC4/SW_Tx_UART_1.c **** *  None
 119:.\Generated_Source\PSoC4/SW_Tx_UART_1.c **** *
 120:.\Generated_Source\PSoC4/SW_Tx_UART_1.c **** *******************************************************************************/
 121:.\Generated_Source\PSoC4/SW_Tx_UART_1.c **** void SW_Tx_UART_1_Stop(void) 
 122:.\Generated_Source\PSoC4/SW_Tx_UART_1.c **** {
  71              		.loc 1 122 0
  72              		.cfi_startproc
  73 0000 80B5     		push	{r7, lr}
  74              	.LCFI2:
  75              		.cfi_def_cfa_offset 8
  76              		.cfi_offset 7, -8
  77              		.cfi_offset 14, -4
  78 0002 00AF     		add	r7, sp, #0
  79              	.LCFI3:
  80              		.cfi_def_cfa_register 7
 123:.\Generated_Source\PSoC4/SW_Tx_UART_1.c **** 
 124:.\Generated_Source\PSoC4/SW_Tx_UART_1.c **** }
  81              		.loc 1 124 0
  82 0004 BD46     		mov	sp, r7
  83              		@ sp needed for prologue
  84 0006 80BD     		pop	{r7, pc}
  85              		.cfi_endproc
  86              	.LFE1:
  87              		.size	SW_Tx_UART_1_Stop, .-SW_Tx_UART_1_Stop
  88              		.section	.text.SW_Tx_UART_1_PutString,"ax",%progbits
  89              		.align	2
  90              		.global	SW_Tx_UART_1_PutString
  91              		.code	16
  92              		.thumb_func
  93              		.type	SW_Tx_UART_1_PutString, %function
  94              	SW_Tx_UART_1_PutString:
  95              	.LFB2:
 125:.\Generated_Source\PSoC4/SW_Tx_UART_1.c **** 
 126:.\Generated_Source\PSoC4/SW_Tx_UART_1.c **** 
 127:.\Generated_Source\PSoC4/SW_Tx_UART_1.c **** /*******************************************************************************
 128:.\Generated_Source\PSoC4/SW_Tx_UART_1.c **** * Function Name: SW_Tx_UART_1_PutString
 129:.\Generated_Source\PSoC4/SW_Tx_UART_1.c **** ********************************************************************************
 130:.\Generated_Source\PSoC4/SW_Tx_UART_1.c **** *
 131:.\Generated_Source\PSoC4/SW_Tx_UART_1.c **** * Summary:
 132:.\Generated_Source\PSoC4/SW_Tx_UART_1.c **** *  Sends a NULL terminated string via the Tx pin.
 133:.\Generated_Source\PSoC4/SW_Tx_UART_1.c **** *
ARM GAS  C:\Users\ALEXAN~1\AppData\Local\Temp\ccox2OIc.s 			page 5


 134:.\Generated_Source\PSoC4/SW_Tx_UART_1.c **** * Parameters:
 135:.\Generated_Source\PSoC4/SW_Tx_UART_1.c **** *  string: Pointer to the null terminated string to send
 136:.\Generated_Source\PSoC4/SW_Tx_UART_1.c **** *
 137:.\Generated_Source\PSoC4/SW_Tx_UART_1.c **** * Return:
 138:.\Generated_Source\PSoC4/SW_Tx_UART_1.c **** *  None
 139:.\Generated_Source\PSoC4/SW_Tx_UART_1.c **** *
 140:.\Generated_Source\PSoC4/SW_Tx_UART_1.c **** *******************************************************************************/
 141:.\Generated_Source\PSoC4/SW_Tx_UART_1.c **** void SW_Tx_UART_1_PutString(const char8 string[]) 
 142:.\Generated_Source\PSoC4/SW_Tx_UART_1.c **** {
  96              		.loc 1 142 0
  97              		.cfi_startproc
  98 0000 80B5     		push	{r7, lr}
  99              	.LCFI4:
 100              		.cfi_def_cfa_offset 8
 101              		.cfi_offset 7, -8
 102              		.cfi_offset 14, -4
 103 0002 84B0     		sub	sp, sp, #16
 104              	.LCFI5:
 105              		.cfi_def_cfa_offset 24
 106 0004 00AF     		add	r7, sp, #0
 107              	.LCFI6:
 108              		.cfi_def_cfa_register 7
 109 0006 7860     		str	r0, [r7, #4]
 143:.\Generated_Source\PSoC4/SW_Tx_UART_1.c ****     uint8 stringIndex = 1u;
 110              		.loc 1 143 0
 111 0008 3B1C     		mov	r3, r7
 112 000a 0F33     		add	r3, r3, #15
 113 000c 0122     		mov	r2, #1
 114 000e 1A70     		strb	r2, [r3]
 144:.\Generated_Source\PSoC4/SW_Tx_UART_1.c ****     char8 current = *string;
 115              		.loc 1 144 0
 116 0010 3B1C     		mov	r3, r7
 117 0012 0E33     		add	r3, r3, #14
 118 0014 7A68     		ldr	r2, [r7, #4]
 119 0016 1278     		ldrb	r2, [r2]
 120 0018 1A70     		strb	r2, [r3]
 145:.\Generated_Source\PSoC4/SW_Tx_UART_1.c **** 
 146:.\Generated_Source\PSoC4/SW_Tx_UART_1.c ****     /* Until null is reached, print next character */
 147:.\Generated_Source\PSoC4/SW_Tx_UART_1.c ****     while((char8) '\0' != current)
 121              		.loc 1 147 0
 122 001a 15E0     		b	.L4
 123              	.L5:
 148:.\Generated_Source\PSoC4/SW_Tx_UART_1.c ****     {
 149:.\Generated_Source\PSoC4/SW_Tx_UART_1.c ****         SW_Tx_UART_1_PutChar((uint8)current);
 124              		.loc 1 149 0
 125 001c 3B1C     		mov	r3, r7
 126 001e 0E33     		add	r3, r3, #14
 127 0020 1B78     		ldrb	r3, [r3]
 128 0022 181C     		mov	r0, r3
 129 0024 FFF7FEFF 		bl	SW_Tx_UART_1_PutChar
 150:.\Generated_Source\PSoC4/SW_Tx_UART_1.c ****         current = string[stringIndex];
 130              		.loc 1 150 0
 131 0028 3B1C     		mov	r3, r7
 132 002a 0F33     		add	r3, r3, #15
 133 002c 1B78     		ldrb	r3, [r3]
 134 002e 7A68     		ldr	r2, [r7, #4]
 135 0030 D218     		add	r2, r2, r3
ARM GAS  C:\Users\ALEXAN~1\AppData\Local\Temp\ccox2OIc.s 			page 6


 136 0032 3B1C     		mov	r3, r7
 137 0034 0E33     		add	r3, r3, #14
 138 0036 1278     		ldrb	r2, [r2]
 139 0038 1A70     		strb	r2, [r3]
 151:.\Generated_Source\PSoC4/SW_Tx_UART_1.c ****         stringIndex++;
 140              		.loc 1 151 0
 141 003a 3B1C     		mov	r3, r7
 142 003c 0F33     		add	r3, r3, #15
 143 003e 3A1C     		mov	r2, r7
 144 0040 0F32     		add	r2, r2, #15
 145 0042 1278     		ldrb	r2, [r2]
 146 0044 0132     		add	r2, r2, #1
 147 0046 1A70     		strb	r2, [r3]
 148              	.L4:
 147:.\Generated_Source\PSoC4/SW_Tx_UART_1.c ****     while((char8) '\0' != current)
 149              		.loc 1 147 0 discriminator 1
 150 0048 3B1C     		mov	r3, r7
 151 004a 0E33     		add	r3, r3, #14
 152 004c 1B78     		ldrb	r3, [r3]
 153 004e 002B     		cmp	r3, #0
 154 0050 E4D1     		bne	.L5
 152:.\Generated_Source\PSoC4/SW_Tx_UART_1.c ****     }
 153:.\Generated_Source\PSoC4/SW_Tx_UART_1.c **** }
 155              		.loc 1 153 0
 156 0052 BD46     		mov	sp, r7
 157 0054 04B0     		add	sp, sp, #16
 158              		@ sp needed for prologue
 159 0056 80BD     		pop	{r7, pc}
 160              		.cfi_endproc
 161              	.LFE2:
 162              		.size	SW_Tx_UART_1_PutString, .-SW_Tx_UART_1_PutString
 163              		.section	.text.SW_Tx_UART_1_PutArray,"ax",%progbits
 164              		.align	2
 165              		.global	SW_Tx_UART_1_PutArray
 166              		.code	16
 167              		.thumb_func
 168              		.type	SW_Tx_UART_1_PutArray, %function
 169              	SW_Tx_UART_1_PutArray:
 170              	.LFB3:
 154:.\Generated_Source\PSoC4/SW_Tx_UART_1.c **** 
 155:.\Generated_Source\PSoC4/SW_Tx_UART_1.c **** 
 156:.\Generated_Source\PSoC4/SW_Tx_UART_1.c **** /*******************************************************************************
 157:.\Generated_Source\PSoC4/SW_Tx_UART_1.c **** * Function Name: SW_Tx_UART_1_PutArray
 158:.\Generated_Source\PSoC4/SW_Tx_UART_1.c **** ********************************************************************************
 159:.\Generated_Source\PSoC4/SW_Tx_UART_1.c **** *
 160:.\Generated_Source\PSoC4/SW_Tx_UART_1.c **** * Summary:
 161:.\Generated_Source\PSoC4/SW_Tx_UART_1.c **** *  Sends byteCount bytes from a memory array via the Tx pin.
 162:.\Generated_Source\PSoC4/SW_Tx_UART_1.c **** *
 163:.\Generated_Source\PSoC4/SW_Tx_UART_1.c **** * Parameters:
 164:.\Generated_Source\PSoC4/SW_Tx_UART_1.c **** *  data: Pointer to the memory array
 165:.\Generated_Source\PSoC4/SW_Tx_UART_1.c **** *  byteCount: Number of bytes to be transmitted
 166:.\Generated_Source\PSoC4/SW_Tx_UART_1.c **** *
 167:.\Generated_Source\PSoC4/SW_Tx_UART_1.c **** * Return:
 168:.\Generated_Source\PSoC4/SW_Tx_UART_1.c **** *  None
 169:.\Generated_Source\PSoC4/SW_Tx_UART_1.c **** *
 170:.\Generated_Source\PSoC4/SW_Tx_UART_1.c **** *******************************************************************************/
 171:.\Generated_Source\PSoC4/SW_Tx_UART_1.c **** void SW_Tx_UART_1_PutArray(const uint8 array[], uint32 byteCount) 
ARM GAS  C:\Users\ALEXAN~1\AppData\Local\Temp\ccox2OIc.s 			page 7


 172:.\Generated_Source\PSoC4/SW_Tx_UART_1.c **** {
 171              		.loc 1 172 0
 172              		.cfi_startproc
 173 0000 80B5     		push	{r7, lr}
 174              	.LCFI7:
 175              		.cfi_def_cfa_offset 8
 176              		.cfi_offset 7, -8
 177              		.cfi_offset 14, -4
 178 0002 84B0     		sub	sp, sp, #16
 179              	.LCFI8:
 180              		.cfi_def_cfa_offset 24
 181 0004 00AF     		add	r7, sp, #0
 182              	.LCFI9:
 183              		.cfi_def_cfa_register 7
 184 0006 7860     		str	r0, [r7, #4]
 185 0008 3960     		str	r1, [r7]
 173:.\Generated_Source\PSoC4/SW_Tx_UART_1.c ****     uint32 arrayIndex;
 174:.\Generated_Source\PSoC4/SW_Tx_UART_1.c **** 
 175:.\Generated_Source\PSoC4/SW_Tx_UART_1.c ****     for (arrayIndex = 0u; arrayIndex < byteCount; arrayIndex++)
 186              		.loc 1 175 0
 187 000a 0023     		mov	r3, #0
 188 000c FB60     		str	r3, [r7, #12]
 189 000e 09E0     		b	.L7
 190              	.L8:
 176:.\Generated_Source\PSoC4/SW_Tx_UART_1.c ****     {
 177:.\Generated_Source\PSoC4/SW_Tx_UART_1.c ****         SW_Tx_UART_1_PutChar(array[arrayIndex]);
 191              		.loc 1 177 0 discriminator 2
 192 0010 7A68     		ldr	r2, [r7, #4]
 193 0012 FB68     		ldr	r3, [r7, #12]
 194 0014 D318     		add	r3, r2, r3
 195 0016 1B78     		ldrb	r3, [r3]
 196 0018 181C     		mov	r0, r3
 197 001a FFF7FEFF 		bl	SW_Tx_UART_1_PutChar
 175:.\Generated_Source\PSoC4/SW_Tx_UART_1.c ****     for (arrayIndex = 0u; arrayIndex < byteCount; arrayIndex++)
 198              		.loc 1 175 0 discriminator 2
 199 001e FB68     		ldr	r3, [r7, #12]
 200 0020 0133     		add	r3, r3, #1
 201 0022 FB60     		str	r3, [r7, #12]
 202              	.L7:
 175:.\Generated_Source\PSoC4/SW_Tx_UART_1.c ****     for (arrayIndex = 0u; arrayIndex < byteCount; arrayIndex++)
 203              		.loc 1 175 0 is_stmt 0 discriminator 1
 204 0024 FA68     		ldr	r2, [r7, #12]
 205 0026 3B68     		ldr	r3, [r7]
 206 0028 9A42     		cmp	r2, r3
 207 002a F1D3     		bcc	.L8
 178:.\Generated_Source\PSoC4/SW_Tx_UART_1.c ****     }
 179:.\Generated_Source\PSoC4/SW_Tx_UART_1.c **** }
 208              		.loc 1 179 0 is_stmt 1
 209 002c BD46     		mov	sp, r7
 210 002e 04B0     		add	sp, sp, #16
 211              		@ sp needed for prologue
 212 0030 80BD     		pop	{r7, pc}
 213              		.cfi_endproc
 214              	.LFE3:
 215              		.size	SW_Tx_UART_1_PutArray, .-SW_Tx_UART_1_PutArray
 216 0032 C046     		.section	.text.SW_Tx_UART_1_PutHexByte,"ax",%progbits
 217              		.align	2
ARM GAS  C:\Users\ALEXAN~1\AppData\Local\Temp\ccox2OIc.s 			page 8


 218              		.global	SW_Tx_UART_1_PutHexByte
 219              		.code	16
 220              		.thumb_func
 221              		.type	SW_Tx_UART_1_PutHexByte, %function
 222              	SW_Tx_UART_1_PutHexByte:
 223              	.LFB4:
 180:.\Generated_Source\PSoC4/SW_Tx_UART_1.c **** 
 181:.\Generated_Source\PSoC4/SW_Tx_UART_1.c **** 
 182:.\Generated_Source\PSoC4/SW_Tx_UART_1.c **** /*******************************************************************************
 183:.\Generated_Source\PSoC4/SW_Tx_UART_1.c **** * Function Name: SW_Tx_UART_1_PutHexByte
 184:.\Generated_Source\PSoC4/SW_Tx_UART_1.c **** ********************************************************************************
 185:.\Generated_Source\PSoC4/SW_Tx_UART_1.c **** *
 186:.\Generated_Source\PSoC4/SW_Tx_UART_1.c **** * Summary:
 187:.\Generated_Source\PSoC4/SW_Tx_UART_1.c **** *  Sends a byte in Hex representation (two characters, uppercase for A-F) via
 188:.\Generated_Source\PSoC4/SW_Tx_UART_1.c **** *  the Tx pin.
 189:.\Generated_Source\PSoC4/SW_Tx_UART_1.c **** *
 190:.\Generated_Source\PSoC4/SW_Tx_UART_1.c **** * Parameters:
 191:.\Generated_Source\PSoC4/SW_Tx_UART_1.c **** *  TxHexByte: The byte to be converted to ASCII characters and
 192:.\Generated_Source\PSoC4/SW_Tx_UART_1.c **** *             sent via the Tx pin.
 193:.\Generated_Source\PSoC4/SW_Tx_UART_1.c **** *
 194:.\Generated_Source\PSoC4/SW_Tx_UART_1.c **** * Return:
 195:.\Generated_Source\PSoC4/SW_Tx_UART_1.c **** *  None
 196:.\Generated_Source\PSoC4/SW_Tx_UART_1.c **** *
 197:.\Generated_Source\PSoC4/SW_Tx_UART_1.c **** *******************************************************************************/
 198:.\Generated_Source\PSoC4/SW_Tx_UART_1.c **** void SW_Tx_UART_1_PutHexByte(uint8 txHexByte) 
 199:.\Generated_Source\PSoC4/SW_Tx_UART_1.c **** {
 224              		.loc 1 199 0
 225              		.cfi_startproc
 226 0000 80B5     		push	{r7, lr}
 227              	.LCFI10:
 228              		.cfi_def_cfa_offset 8
 229              		.cfi_offset 7, -8
 230              		.cfi_offset 14, -4
 231 0002 82B0     		sub	sp, sp, #8
 232              	.LCFI11:
 233              		.cfi_def_cfa_offset 16
 234 0004 00AF     		add	r7, sp, #0
 235              	.LCFI12:
 236              		.cfi_def_cfa_register 7
 237 0006 021C     		mov	r2, r0
 238 0008 FB1D     		add	r3, r7, #7
 239 000a 1A70     		strb	r2, [r3]
 200:.\Generated_Source\PSoC4/SW_Tx_UART_1.c ****     static char8 const CYCODE SW_Tx_UART_1_hex[] = "0123456789ABCDEF";
 201:.\Generated_Source\PSoC4/SW_Tx_UART_1.c **** 
 202:.\Generated_Source\PSoC4/SW_Tx_UART_1.c ****     SW_Tx_UART_1_PutChar((uint8) SW_Tx_UART_1_hex[txHexByte >> SW_Tx_UART_1_BYTE_UPPER_NIBBLE_SHIFT
 240              		.loc 1 202 0
 241 000c FB1D     		add	r3, r7, #7
 242 000e 1B78     		ldrb	r3, [r3]
 243 0010 1B09     		lsr	r3, r3, #4
 244 0012 DBB2     		uxtb	r3, r3
 245 0014 084A     		ldr	r2, .L10
 246 0016 D35C     		ldrb	r3, [r2, r3]
 247 0018 181C     		mov	r0, r3
 248 001a FFF7FEFF 		bl	SW_Tx_UART_1_PutChar
 203:.\Generated_Source\PSoC4/SW_Tx_UART_1.c ****     SW_Tx_UART_1_PutChar((uint8) SW_Tx_UART_1_hex[txHexByte & SW_Tx_UART_1_BYTE_LOWER_NIBBLE_MASK])
 249              		.loc 1 203 0
 250 001e FB1D     		add	r3, r7, #7
ARM GAS  C:\Users\ALEXAN~1\AppData\Local\Temp\ccox2OIc.s 			page 9


 251 0020 1A78     		ldrb	r2, [r3]
 252 0022 0F23     		mov	r3, #15
 253 0024 1340     		and	r3, r2
 254 0026 044A     		ldr	r2, .L10
 255 0028 D35C     		ldrb	r3, [r2, r3]
 256 002a 181C     		mov	r0, r3
 257 002c FFF7FEFF 		bl	SW_Tx_UART_1_PutChar
 204:.\Generated_Source\PSoC4/SW_Tx_UART_1.c **** }
 258              		.loc 1 204 0
 259 0030 BD46     		mov	sp, r7
 260 0032 02B0     		add	sp, sp, #8
 261              		@ sp needed for prologue
 262 0034 80BD     		pop	{r7, pc}
 263              	.L11:
 264 0036 C046     		.align	2
 265              	.L10:
 266 0038 00000000 		.word	SW_Tx_UART_1_hex.4149
 267              		.cfi_endproc
 268              	.LFE4:
 269              		.size	SW_Tx_UART_1_PutHexByte, .-SW_Tx_UART_1_PutHexByte
 270              		.section	.text.SW_Tx_UART_1_PutHexInt,"ax",%progbits
 271              		.align	2
 272              		.global	SW_Tx_UART_1_PutHexInt
 273              		.code	16
 274              		.thumb_func
 275              		.type	SW_Tx_UART_1_PutHexInt, %function
 276              	SW_Tx_UART_1_PutHexInt:
 277              	.LFB5:
 205:.\Generated_Source\PSoC4/SW_Tx_UART_1.c **** 
 206:.\Generated_Source\PSoC4/SW_Tx_UART_1.c **** 
 207:.\Generated_Source\PSoC4/SW_Tx_UART_1.c **** /*******************************************************************************
 208:.\Generated_Source\PSoC4/SW_Tx_UART_1.c **** * Function Name: SW_Tx_UART_1_PutHexInt
 209:.\Generated_Source\PSoC4/SW_Tx_UART_1.c **** ********************************************************************************
 210:.\Generated_Source\PSoC4/SW_Tx_UART_1.c **** *
 211:.\Generated_Source\PSoC4/SW_Tx_UART_1.c **** * Summary:
 212:.\Generated_Source\PSoC4/SW_Tx_UART_1.c **** *  Sends a 16-bit unsigned integer in Hex representation (four characters,
 213:.\Generated_Source\PSoC4/SW_Tx_UART_1.c **** *  uppercase for A-F) via the Tx pin.
 214:.\Generated_Source\PSoC4/SW_Tx_UART_1.c **** *
 215:.\Generated_Source\PSoC4/SW_Tx_UART_1.c **** * Parameters:
 216:.\Generated_Source\PSoC4/SW_Tx_UART_1.c **** *  TxHexInt: The uint16 to be converted to ASCII characters and sent via
 217:.\Generated_Source\PSoC4/SW_Tx_UART_1.c **** *            the Tx pin.
 218:.\Generated_Source\PSoC4/SW_Tx_UART_1.c **** *
 219:.\Generated_Source\PSoC4/SW_Tx_UART_1.c **** * Return:
 220:.\Generated_Source\PSoC4/SW_Tx_UART_1.c **** *  None
 221:.\Generated_Source\PSoC4/SW_Tx_UART_1.c **** *
 222:.\Generated_Source\PSoC4/SW_Tx_UART_1.c **** *******************************************************************************/
 223:.\Generated_Source\PSoC4/SW_Tx_UART_1.c **** void SW_Tx_UART_1_PutHexInt(uint16 txHexInt) 
 224:.\Generated_Source\PSoC4/SW_Tx_UART_1.c **** {
 278              		.loc 1 224 0
 279              		.cfi_startproc
 280 0000 80B5     		push	{r7, lr}
 281              	.LCFI13:
 282              		.cfi_def_cfa_offset 8
 283              		.cfi_offset 7, -8
 284              		.cfi_offset 14, -4
 285 0002 82B0     		sub	sp, sp, #8
 286              	.LCFI14:
ARM GAS  C:\Users\ALEXAN~1\AppData\Local\Temp\ccox2OIc.s 			page 10


 287              		.cfi_def_cfa_offset 16
 288 0004 00AF     		add	r7, sp, #0
 289              	.LCFI15:
 290              		.cfi_def_cfa_register 7
 291 0006 021C     		mov	r2, r0
 292 0008 BB1D     		add	r3, r7, #6
 293 000a 1A80     		strh	r2, [r3]
 225:.\Generated_Source\PSoC4/SW_Tx_UART_1.c ****     SW_Tx_UART_1_PutHexByte((uint8)(txHexInt >> SW_Tx_UART_1_U16_UPPER_BYTE_SHIFT));
 294              		.loc 1 225 0
 295 000c BB1D     		add	r3, r7, #6
 296 000e 1B88     		ldrh	r3, [r3]
 297 0010 1B0A     		lsr	r3, r3, #8
 298 0012 9BB2     		uxth	r3, r3
 299 0014 DBB2     		uxtb	r3, r3
 300 0016 181C     		mov	r0, r3
 301 0018 FFF7FEFF 		bl	SW_Tx_UART_1_PutHexByte
 226:.\Generated_Source\PSoC4/SW_Tx_UART_1.c ****     SW_Tx_UART_1_PutHexByte((uint8)(txHexInt & SW_Tx_UART_1_U16_LOWER_BYTE_MASK));
 302              		.loc 1 226 0
 303 001c BB1D     		add	r3, r7, #6
 304 001e 1B88     		ldrh	r3, [r3]
 305 0020 DBB2     		uxtb	r3, r3
 306 0022 181C     		mov	r0, r3
 307 0024 FFF7FEFF 		bl	SW_Tx_UART_1_PutHexByte
 227:.\Generated_Source\PSoC4/SW_Tx_UART_1.c **** }
 308              		.loc 1 227 0
 309 0028 BD46     		mov	sp, r7
 310 002a 02B0     		add	sp, sp, #8
 311              		@ sp needed for prologue
 312 002c 80BD     		pop	{r7, pc}
 313              		.cfi_endproc
 314              	.LFE5:
 315              		.size	SW_Tx_UART_1_PutHexInt, .-SW_Tx_UART_1_PutHexInt
 316 002e C046     		.section	.text.SW_Tx_UART_1_PutCRLF,"ax",%progbits
 317              		.align	2
 318              		.global	SW_Tx_UART_1_PutCRLF
 319              		.code	16
 320              		.thumb_func
 321              		.type	SW_Tx_UART_1_PutCRLF, %function
 322              	SW_Tx_UART_1_PutCRLF:
 323              	.LFB6:
 228:.\Generated_Source\PSoC4/SW_Tx_UART_1.c **** 
 229:.\Generated_Source\PSoC4/SW_Tx_UART_1.c **** 
 230:.\Generated_Source\PSoC4/SW_Tx_UART_1.c **** /*******************************************************************************
 231:.\Generated_Source\PSoC4/SW_Tx_UART_1.c **** * Function Name: SW_Tx_UART_1_PutCRLF
 232:.\Generated_Source\PSoC4/SW_Tx_UART_1.c **** ********************************************************************************
 233:.\Generated_Source\PSoC4/SW_Tx_UART_1.c **** *
 234:.\Generated_Source\PSoC4/SW_Tx_UART_1.c **** * Summary:
 235:.\Generated_Source\PSoC4/SW_Tx_UART_1.c **** *  Sends a carriage return (0x0D) and a line feed (0x0A) via the Tx pin.
 236:.\Generated_Source\PSoC4/SW_Tx_UART_1.c **** *
 237:.\Generated_Source\PSoC4/SW_Tx_UART_1.c **** * Parameters:
 238:.\Generated_Source\PSoC4/SW_Tx_UART_1.c **** *  None
 239:.\Generated_Source\PSoC4/SW_Tx_UART_1.c **** *
 240:.\Generated_Source\PSoC4/SW_Tx_UART_1.c **** * Return:
 241:.\Generated_Source\PSoC4/SW_Tx_UART_1.c **** *  None
 242:.\Generated_Source\PSoC4/SW_Tx_UART_1.c **** *
 243:.\Generated_Source\PSoC4/SW_Tx_UART_1.c **** *******************************************************************************/
 244:.\Generated_Source\PSoC4/SW_Tx_UART_1.c **** void SW_Tx_UART_1_PutCRLF(void) 
ARM GAS  C:\Users\ALEXAN~1\AppData\Local\Temp\ccox2OIc.s 			page 11


 245:.\Generated_Source\PSoC4/SW_Tx_UART_1.c **** {
 324              		.loc 1 245 0
 325              		.cfi_startproc
 326 0000 80B5     		push	{r7, lr}
 327              	.LCFI16:
 328              		.cfi_def_cfa_offset 8
 329              		.cfi_offset 7, -8
 330              		.cfi_offset 14, -4
 331 0002 00AF     		add	r7, sp, #0
 332              	.LCFI17:
 333              		.cfi_def_cfa_register 7
 246:.\Generated_Source\PSoC4/SW_Tx_UART_1.c ****     SW_Tx_UART_1_PutChar(0x0Du);
 334              		.loc 1 246 0
 335 0004 0D20     		mov	r0, #13
 336 0006 FFF7FEFF 		bl	SW_Tx_UART_1_PutChar
 247:.\Generated_Source\PSoC4/SW_Tx_UART_1.c ****     SW_Tx_UART_1_PutChar(0x0Au);
 337              		.loc 1 247 0
 338 000a 0A20     		mov	r0, #10
 339 000c FFF7FEFF 		bl	SW_Tx_UART_1_PutChar
 248:.\Generated_Source\PSoC4/SW_Tx_UART_1.c **** }
 340              		.loc 1 248 0
 341 0010 BD46     		mov	sp, r7
 342              		@ sp needed for prologue
 343 0012 80BD     		pop	{r7, pc}
 344              		.cfi_endproc
 345              	.LFE6:
 346              		.size	SW_Tx_UART_1_PutCRLF, .-SW_Tx_UART_1_PutCRLF
 347              		.section	.rodata
 348              		.align	2
 349              		.type	SW_Tx_UART_1_hex.4149, %object
 350              		.size	SW_Tx_UART_1_hex.4149, 17
 351              	SW_Tx_UART_1_hex.4149:
 352 0000 30313233 		.ascii	"0123456789ABCDEF\000"
 352      34353637 
 352      38394142 
 352      43444546 
 352      00
 353 0011 000000   		.text
 354              	.Letext0:
 355              		.file 2 ".\\Generated_Source\\PSoC4\\cytypes.h"